liblftp-jobs.so.0:_Z10cmd_moduleP7CmdExec
liblftp-jobs.so.0:_Z10cmd_scacheP7CmdExec
liblftp-jobs.so.0:_Z10cmd_sourceP7CmdExec
liblftp-jobs.so.0:_Z11cmd_commandP7CmdExec
liblftp-jobs.so.0:_Z11cmd_suspendP7CmdExec
liblftp-jobs.so.0:_Z12cmd_bookmarkP7CmdExec
liblftp-jobs.so.0:_Z12cmd_notemptyP7CmdExec
liblftp-jobs.so.0:_Z6cmd_cdP7CmdExec
liblftp-jobs.so.0:_Z6cmd_duP7CmdExec
liblftp-jobs.so.0:_Z6cmd_lnP7CmdExec
liblftp-jobs.so.0:_Z6cmd_lsP7CmdExec
liblftp-jobs.so.0:_Z6cmd_mvP7CmdExec
liblftp-jobs.so.0:_Z6cmd_rmP7CmdExec
liblftp-jobs.so.0:_Z7cmd_catP7CmdExec
liblftp-jobs.so.0:_Z7cmd_clsP7CmdExec
liblftp-jobs.so.0:_Z7cmd_getP7CmdExec
liblftp-jobs.so.0:_Z7cmd_lcdP7CmdExec
liblftp-jobs.so.0:_Z7cmd_mmvP7CmdExec
liblftp-jobs.so.0:_Z7cmd_mrmP7CmdExec
liblftp-jobs.so.0:_Z7cmd_pwdP7CmdExec
liblftp-jobs.so.0:_Z7cmd_setP7CmdExec
liblftp-jobs.so.0:_Z7cmd_verP7CmdExec
liblftp-jobs.so.0:_Z8cmd_anonP7CmdExec
liblftp-jobs.so.0:_Z8cmd_echoP7CmdExec
liblftp-jobs.so.0:_Z8cmd_editP7CmdExec
liblftp-jobs.so.0:_Z8cmd_evalP7CmdExec
liblftp-jobs.so.0:_Z8cmd_exitP7CmdExec
liblftp-jobs.so.0:_Z8cmd_findP7CmdExec
liblftp-jobs.so.0:_Z8cmd_get1P7CmdExec
liblftp-jobs.so.0:_Z8cmd_globP7CmdExec
liblftp-jobs.so.0:_Z8cmd_helpP7CmdExec
liblftp-jobs.so.0:_Z8cmd_jobsP7CmdExec
liblftp-jobs.so.0:_Z8cmd_killP7CmdExec
liblftp-jobs.so.0:_Z8cmd_lftpP7CmdExec
liblftp-jobs.so.0:_Z8cmd_lpwdP7CmdExec
liblftp-jobs.so.0:_Z8cmd_openP7CmdExec
liblftp-jobs.so.0:_Z8cmd_slotP7CmdExec
liblftp-jobs.so.0:_Z8cmd_trueP7CmdExec
liblftp-jobs.so.0:_Z8cmd_userP7CmdExec
liblftp-jobs.so.0:_Z8cmd_waitP7CmdExec
liblftp-jobs.so.0:_Z9cmd_aliasP7CmdExec
liblftp-jobs.so.0:_Z9cmd_cacheP7CmdExec
liblftp-jobs.so.0:_Z9cmd_chmodP7CmdExec
liblftp-jobs.so.0:_Z9cmd_closeP7CmdExec
liblftp-jobs.so.0:_Z9cmd_debugP7CmdExec
liblftp-jobs.so.0:_Z9cmd_emptyP7CmdExec
liblftp-jobs.so.0:_Z9cmd_falseP7CmdExec
liblftp-jobs.so.0:_Z9cmd_localP7CmdExec
liblftp-jobs.so.0:_Z9cmd_mkdirP7CmdExec
liblftp-jobs.so.0:_Z9cmd_queueP7CmdExec
liblftp-jobs.so.0:_Z9cmd_shellP7CmdExec
liblftp-jobs.so.0:_Z9cmd_subshP7CmdExec
liblftp-jobs.so.0:_Z9cmd_tasksP7CmdExec
liblftp-jobs.so.0:_ZN10CopyJobEnv12FormatStatusER7xstringiPKc
liblftp-jobs.so.0:_ZN10CopyJobEnv21FormatFinalWithPrefixER7xstringPKc
liblftp-jobs.so.0:_ZN10CopyJobEnv2DoEv
liblftp-jobs.so.0:_ZN10CopyJobEnv4DoneEv
liblftp-jobs.so.0:_ZN10CopyJobEnv8SayFinalEv
liblftp-jobs.so.0:_ZN10CopyJobEnv9AcceptSigEi
liblftp-jobs.so.0:_ZN10CopyJobEnv9AddCopierEP8FileCopyPKc
liblftp-jobs.so.0:_ZN10CopyJobEnv9SetCopierEP8FileCopyPKc
liblftp-jobs.so.0:_ZN10CopyJobEnvC1EP10FileAccessP4ArgVb
liblftp-jobs.so.0:_ZN10CopyJobEnvC2EP10FileAccessP4ArgVb
liblftp-jobs.so.0:_ZN10CopyJobEnvD0Ev
liblftp-jobs.so.0:_ZN10CopyJobEnvD1Ev
liblftp-jobs.so.0:_ZN10CopyJobEnvD2Ev
liblftp-jobs.so.0:_ZN10FileFeeder7NextCmdEP7CmdExecPKc
liblftp-jobs.so.0:_ZN10FileFeederC1EP8FDStream
liblftp-jobs.so.0:_ZN10FileFeederC2EP8FDStream
liblftp-jobs.so.0:_ZN10FileFeederD0Ev
liblftp-jobs.so.0:_ZN10FileFeederD1Ev
liblftp-jobs.so.0:_ZN10FileFeederD2Ev
liblftp-jobs.so.0:_ZN10SessionJob12FormatStatusER7xstringiPKc
liblftp-jobs.so.0:_ZN10SessionJob2BgEv
liblftp-jobs.so.0:_ZN10SessionJob2FgEv
liblftp-jobs.so.0:_ZN11QueueFeeder10unlink_jobEPNS_8QueueJobE
liblftp-jobs.so.0:_ZN11QueueFeeder11insert_jobsEPNS_8QueueJobERS1_S2_S1_
liblftp-jobs.so.0:_ZN11QueueFeeder14get_next_matchEPKcPNS_8QueueJobE
liblftp-jobs.so.0:_ZN11QueueFeeder6DelJobEPKci
liblftp-jobs.so.0:_ZN11QueueFeeder6DelJobEii
liblftp-jobs.so.0:_ZN11QueueFeeder7MoveJobEPKcii
liblftp-jobs.so.0:_ZN11QueueFeeder7MoveJobEiii
liblftp-jobs.so.0:_ZN11QueueFeeder7NextCmdEP7CmdExecPKc
liblftp-jobs.so.0:_ZN11QueueFeeder7get_jobEi
liblftp-jobs.so.0:_ZN11QueueFeeder8FreeListEPNS_8QueueJobE
liblftp-jobs.so.0:_ZN11QueueFeeder8JobCountEPKNS_8QueueJobE
liblftp-jobs.so.0:_ZN11QueueFeeder8QueueCmdEPKcS1_S1_ii
liblftp-jobs.so.0:_ZN11QueueFeeder8grab_jobEPKc
liblftp-jobs.so.0:_ZN11QueueFeeder8grab_jobEi
liblftp-jobs.so.0:_ZN11QueueFeederD0Ev
liblftp-jobs.so.0:_ZN11QueueFeederD1Ev
liblftp-jobs.so.0:_ZN11QueueFeederD2Ev
liblftp-jobs.so.0:_ZN12ColumnOutput3addEPKcS1_
liblftp-jobs.so.0:_ZN12ColumnOutput4addfEPKcS1_z
liblftp-jobs.so.0:_ZN12ColumnOutput6appendEv
liblftp-jobs.so.0:_ZN12FinderJob_Du10print_sizeExPKc
liblftp-jobs.so.0:_ZN12FinderJob_Du11ProcessFileEPKcPK8FileInfo
liblftp-jobs.so.0:_ZN12FinderJob_Du11ProcessListEP7FileSet
liblftp-jobs.so.0:_ZN12FinderJob_Du12MakeFileNameEPKc
liblftp-jobs.so.0:_ZN12FinderJob_Du3PopEv
liblftp-jobs.so.0:_ZN12FinderJob_Du4DoneEv
liblftp-jobs.so.0:_ZN12FinderJob_Du4ExitEv
liblftp-jobs.so.0:_ZN12FinderJob_Du4InitEPKc
liblftp-jobs.so.0:_ZN12FinderJob_Du4PushEPKc
liblftp-jobs.so.0:_ZN12FinderJob_Du5EnterEPKc
liblftp-jobs.so.0:_ZN12FinderJob_Du6FinishEv
liblftp-jobs.so.0:_ZN12FinderJob_DuC1EP10FileAccessP4ArgVP8FDStream
liblftp-jobs.so.0:_ZN12FinderJob_DuC2EP10FileAccessP4ArgVP8FDStream
liblftp-jobs.so.0:_ZN12FinderJob_DuD0Ev
liblftp-jobs.so.0:_ZN12FinderJob_DuD1Ev
liblftp-jobs.so.0:_ZN12FinderJob_DuD2Ev
liblftp-jobs.so.0:_ZN12TreatFileJob11ProcessFileEPKcPK8FileInfo
liblftp-jobs.so.0:_ZN12TreatFileJob12FormatStatusER7xstringiPKc
liblftp-jobs.so.0:_ZN12TreatFileJob13ShowRunStatusERK9SMTaskRefI10StatusLineE
liblftp-jobs.so.0:_ZN12TreatFileJob5BeginEPKc
liblftp-jobs.so.0:_ZN12TreatFileJob6FinishEv
liblftp-jobs.so.0:_ZN12TreatFileJobC1EP10FileAccessP4ArgV
liblftp-jobs.so.0:_ZN12TreatFileJobC2EP10FileAccessP4ArgV
liblftp-jobs.so.0:_ZN12TreatFileJobD0Ev
liblftp-jobs.so.0:_ZN12TreatFileJobD1Ev
liblftp-jobs.so.0:_ZN12TreatFileJobD2Ev
liblftp-jobs.so.0:_ZN13FileSetOutput10parse_argvERK3RefI4ArgVE
liblftp-jobs.so.0:_ZN13FileSetOutput12ValidateArgvEP9xstring_c
liblftp-jobs.so.0:_ZN13FileSetOutput6configEPK9OutputJob
liblftp-jobs.so.0:_ZN13FileSetOutput9long_listEv
liblftp-jobs.so.0:_ZN13FileSetOutput9parse_resEPKc
liblftp-jobs.so.0:_ZN14FinderJob_List11ProcessFileEPKcPK8FileInfo
liblftp-jobs.so.0:_ZN14FinderJob_List6FinishEv
liblftp-jobs.so.0:_ZN14FinderJob_ListC1EP10FileAccessP4ArgVP8FDStream
liblftp-jobs.so.0:_ZN14FinderJob_ListC2EP10FileAccessP4ArgVP8FDStream
liblftp-jobs.so.0:_ZN15IOBuffer_STDOUT6Put_LLEPKci
liblftp-jobs.so.0:_ZN21FileCopyPeerOutputJob2BgEv
liblftp-jobs.so.0:_ZN21FileCopyPeerOutputJob2DoEv
liblftp-jobs.so.0:_ZN21FileCopyPeerOutputJob2FgEv
liblftp-jobs.so.0:_ZN21FileCopyPeerOutputJob6Put_LLEPKci
liblftp-jobs.so.0:_ZN21FileCopyPeerOutputJobC1ERK9SMTaskRefI9OutputJobE
liblftp-jobs.so.0:_ZN21FileCopyPeerOutputJobC2ERK9SMTaskRefI9OutputJobE
liblftp-jobs.so.0:_ZN3Job10AddWaitingEPS_
liblftp-jobs.so.0:_ZN3Job10AllocJobnoEv
liblftp-jobs.so.0:_ZN3Job10FormatJobsER7xstringii
liblftp-jobs.so.0:_ZN3Job10ListOneJobEiiPKc
liblftp-jobs.so.0:_ZN3Job11PrintStatusEiPKc
liblftp-jobs.so.0:_ZN3Job12AllWaitingFgEv
liblftp-jobs.so.0:_ZN3Job12BuryDoneJobsEv
liblftp-jobs.so.0:_ZN3Job12FindAnyChildEv
liblftp-jobs.so.0:_ZN3Job12FormatOneJobER7xstringiiPKc
liblftp-jobs.so.0:_ZN3Job12GetTimeSpentEv
liblftp-jobs.so.0:_ZN3Job12ListDoneJobsEv
liblftp-jobs.so.0:_ZN3Job12NumberOfJobsEv
liblftp-jobs.so.0:_ZN3Job12PrepareToDieEv
liblftp-jobs.so.0:_ZN3Job12top_vfprintfEP8_IO_FILEPKcP13__va_list_tag
liblftp-jobs.so.0:_ZN3Job13GetBytesCountEv
liblftp-jobs.so.0:_ZN3Job13PrintJobTitleEiPKc
liblftp-jobs.so.0:_ZN3Job13RemoveWaitingEPKS_
liblftp-jobs.so.0:_ZN3Job13ShowRunStatusERK9SMTaskRefI10StatusLineE
liblftp-jobs.so.0:_ZN3Job14FormatJobTitleER7xstringiPKc
liblftp-jobs.so.0:_ZN3Job14ReplaceWaitingEPS_S0_
liblftp-jobs.so.0:_ZN3Job15FindWhoWaitsForEPS_
liblftp-jobs.so.0:_ZN3Job15GetTransferRateEv
liblftp-jobs.so.0:_ZN3Job16CheckForWaitLoopEPS_
liblftp-jobs.so.0:_ZN3Job17FormatShortStatusER7xstring
liblftp-jobs.so.0:_ZN3Job18FindDoneAwaitedJobEv
liblftp-jobs.so.0:_ZN3Job18WaitForAllChildrenEv
liblftp-jobs.so.0:_ZN3Job20NumberOfChildrenJobsEv
liblftp-jobs.so.0:_ZN3Job21ListOneJobRecursivelyEii
liblftp-jobs.so.0:_ZN3Job23FormatOneJobRecursivelyER7xstringii
liblftp-jobs.so.0:_ZN3Job27lftpMovesToBackground_ToAllEv
liblftp-jobs.so.0:_ZN3Job2BgEv
liblftp-jobs.so.0:_ZN3Job2FgEv
liblftp-jobs.so.0:_ZN3Job4KillEPS_
liblftp-jobs.so.0:_ZN3Job4KillEi
liblftp-jobs.so.0:_ZN3Job4putsEPKc
liblftp-jobs.so.0:_ZN3Job6perrorEPKc
liblftp-jobs.so.0:_ZN3Job6printfEPKcz
liblftp-jobs.so.0:_ZN3Job7CleanupEv
liblftp-jobs.so.0:_ZN3Job7FindJobEi
liblftp-jobs.so.0:_ZN3Job7KillAllEv
liblftp-jobs.so.0:_ZN3Job7SendSigEii
liblftp-jobs.so.0:_ZN3Job7eprintfEPKcz
liblftp-jobs.so.0:_ZN3Job7fprintfEP8_IO_FILEPKcz
liblftp-jobs.so.0:_ZN3Job8SortJobsEv
liblftp-jobs.so.0:_ZN3Job8WaitDoneEv
liblftp-jobs.so.0:_ZN3Job8WaitsForEPS_
liblftp-jobs.so.0:_ZN3Job8vfprintfEP8_IO_FILEPKcP13__va_list_tag
liblftp-jobs.so.0:_ZN3Job9AcceptSigEi
liblftp-jobs.so.0:_ZN3Job9SetParentEPS_
liblftp-jobs.so.0:_ZN3JobC1Ev
liblftp-jobs.so.0:_ZN3JobC2Ev
liblftp-jobs.so.0:_ZN3JobD0Ev
liblftp-jobs.so.0:_ZN3JobD1Ev
liblftp-jobs.so.0:_ZN3JobD2Ev
liblftp-jobs.so.0:_ZN5Alias3AddEPKcS1_
liblftp-jobs.so.0:_ZN5Alias3DelEPKc
liblftp-jobs.so.0:_ZN5Alias4FindEPKc
liblftp-jobs.so.0:_ZN5Alias6FormatEv
liblftp-jobs.so.0:_ZN5datum6appendEPKcS1_
liblftp-jobs.so.0:_ZN5mvJob12FormatStatusER7xstringiPKc
liblftp-jobs.so.0:_ZN5mvJob13ShowRunStatusERK9SMTaskRefI10StatusLineE
liblftp-jobs.so.0:_ZN5mvJob2DoEv
liblftp-jobs.so.0:_ZN5mvJob8SayFinalEv
liblftp-jobs.so.0:_ZN5mvJobC1EP10FileAccessPKcS3_NS0_9open_modeE
liblftp-jobs.so.0:_ZN5mvJobC2EP10FileAccessPKcS3_NS0_9open_modeE
liblftp-jobs.so.0:_ZN5rmJob12TreatCurrentEPKcPK8FileInfo
liblftp-jobs.so.0:_ZN5rmJob7RecurseEv
liblftp-jobs.so.0:_ZN5rmJob8SayFinalEv
liblftp-jobs.so.0:_ZN5rmJobC1EP10FileAccessP4ArgV
liblftp-jobs.so.0:_ZN5rmJobC2EP10FileAccessP4ArgV
liblftp-jobs.so.0:_ZN6CatJob13ShowRunStatusERK9SMTaskRefI10StatusLineE
liblftp-jobs.so.0:_ZN6CatJob2DoEv
liblftp-jobs.so.0:_ZN6CatJob4DoneEv
liblftp-jobs.so.0:_ZN6CatJob8ExitCodeEv
liblftp-jobs.so.0:_ZN6CatJob8NextFileEv
liblftp-jobs.so.0:_ZN6CatJobC1EP10FileAccessP9OutputJobP4ArgV
liblftp-jobs.so.0:_ZN6CatJobC2EP10FileAccessP9OutputJobP4ArgV
liblftp-jobs.so.0:_ZN6GetJob13IsLocalNonURLERK9ParsedURLN10FileAccess9open_modeE
liblftp-jobs.so.0:_ZN6GetJob14CreateCopyPeerEP10FileAccessPKcNS0_9open_modeE
liblftp-jobs.so.0:_ZN6GetJob14CreateCopyPeerEPKcN10FileAccess9open_modeE
liblftp-jobs.so.0:_ZN6GetJob14CreateCopyPeerERK13FileAccessRefPKcN10FileAccess9open_modeE
liblftp-jobs.so.0:_ZN6GetJob14CreateCopyPeerERK9ParsedURLPKcN10FileAccess9open_modeE
liblftp-jobs.so.0:_ZN6GetJob14IsRemoteNonURLERK9ParsedURLN10FileAccess9open_modeE
liblftp-jobs.so.0:_ZN6GetJob7IsLocalERK9ParsedURL
liblftp-jobs.so.0:_ZN6GetJob8DstLocalEPKc
liblftp-jobs.so.0:_ZN6GetJob8NextFileEv
liblftp-jobs.so.0:_ZN6GetJob8SrcLocalEPKc
liblftp-jobs.so.0:_ZN6GetJobC1EP10FileAccessP4ArgVb
liblftp-jobs.so.0:_ZN6GetJobC2EP10FileAccessP4ArgVb
liblftp-jobs.so.0:_ZN6clsJob12FormatStatusER7xstringiPKc
liblftp-jobs.so.0:_ZN6clsJob13ShowRunStatusERK9SMTaskRefI10StatusLineE
liblftp-jobs.so.0:_ZN6clsJob14ResumeInternalEv
liblftp-jobs.so.0:_ZN6clsJob15SuspendInternalEv
liblftp-jobs.so.0:_ZN6clsJob2DoEv
liblftp-jobs.so.0:_ZN6clsJob4DoneEv
liblftp-jobs.so.0:_ZN6clsJobC1EP10FileAccessP4ArgVP13FileSetOutputP9OutputJob
liblftp-jobs.so.0:_ZN6clsJobC2EP10FileAccessP4ArgVP13FileSetOutputP9OutputJob
liblftp-jobs.so.0:_ZN6mmvJob12FormatStatusER7xstringiPKc
liblftp-jobs.so.0:_ZN6mmvJob13ShowRunStatusERK9SMTaskRefI10StatusLineE
liblftp-jobs.so.0:_ZN6mmvJob2DoEv
liblftp-jobs.so.0:_ZN6mmvJob8SayFinalEv
liblftp-jobs.so.0:_ZN6mmvJobC1EP10FileAccessPK4ArgVPKcNS0_9open_modeE
liblftp-jobs.so.0:_ZN6mmvJobC2EP10FileAccessPK4ArgVPKcNS0_9open_modeE
liblftp-jobs.so.0:_ZN7CmdExec10ChangeSlotEPKc
liblftp-jobs.so.0:_ZN7CmdExec10CmdByIndexEi
liblftp-jobs.so.0:_ZN7CmdExec10ExecParsedEP4ArgVP8FDStreamb
liblftp-jobs.so.0:_ZN7CmdExec10FeedQuotedEPKc
liblftp-jobs.so.0:_ZN7CmdExec10MakePromptEv
liblftp-jobs.so.0:_ZN7CmdExec10PrependCmdEPKc
liblftp-jobs.so.0:_ZN7CmdExec10RestoreCWDEv
liblftp-jobs.so.0:_ZN7CmdExec10SuspendJobEP3Job
liblftp-jobs.so.0:_ZN7CmdExec10builtin_cdEv
liblftp-jobs.so.0:_ZN7CmdExec10pre_stdoutEv
liblftp-jobs.so.0:_ZN7CmdExec11AtTerminateEv
liblftp-jobs.so.0:_ZN7CmdExec11builtin_lcdEv
liblftp-jobs.so.0:_ZN7CmdExec11default_cmdEv
liblftp-jobs.so.0:_ZN7CmdExec12AtBackgroundEv
liblftp-jobs.so.0:_ZN7CmdExec12FormatPromptEPKc
liblftp-jobs.so.0:_ZN7CmdExec12FormatStatusER7xstringiPKc
liblftp-jobs.so.0:_ZN7CmdExec12RemoveFeederEv
liblftp-jobs.so.0:_ZN7CmdExec12SetCmdFeederEP9CmdFeeder
liblftp-jobs.so.0:_ZN7CmdExec12beep_if_longEv
liblftp-jobs.so.0:_ZN7CmdExec12builtin_exitEv
liblftp-jobs.so.0:_ZN7CmdExec12builtin_globEv
liblftp-jobs.so.0:_ZN7CmdExec12builtin_lftpEv
liblftp-jobs.so.0:_ZN7CmdExec12builtin_openEv
liblftp-jobs.so.0:_ZN7CmdExec12enable_debugEPKc
liblftp-jobs.so.0:_ZN7CmdExec12top_vfprintfEP8_IO_FILEPKcP13__va_list_tag
liblftp-jobs.so.0:_ZN7CmdExec13ChangeSessionEP10FileAccess
liblftp-jobs.so.0:_ZN7CmdExec13ShowRunStatusERK9SMTaskRefI10StatusLineE
liblftp-jobs.so.0:_ZN7CmdExec13builtin_localEv
liblftp-jobs.so.0:_ZN7CmdExec13builtin_queueEv
liblftp-jobs.so.0:_ZN7CmdExec13parse_one_cmdEv
liblftp-jobs.so.0:_ZN7CmdExec14SetInteractiveEb
liblftp-jobs.so.0:_ZN7CmdExec14SetInteractiveEv
liblftp-jobs.so.0:_ZN7CmdExec14print_cmd_helpEPKc
liblftp-jobs.so.0:_ZN7CmdExec15RegisterCommandEPKcPFP3JobPS_ES1_S1_
liblftp-jobs.so.0:_ZN7CmdExec15builtin_restartEv
liblftp-jobs.so.0:_ZN7CmdExec15load_cmd_moduleEPKc
liblftp-jobs.so.0:_ZN7CmdExec15needs_quotationEPKci
liblftp-jobs.so.0:_ZN7CmdExec15print_cmd_indexEv
liblftp-jobs.so.0:_ZN7CmdExec17ReuseSavedSessionEv
liblftp-jobs.so.0:_ZN7CmdExec17free_used_aliasesEv
liblftp-jobs.so.0:_ZN7CmdExec18GetFullCommandNameEPKc
liblftp-jobs.so.0:_ZN7CmdExec19SameQueueParametersEPS_PKc
liblftp-jobs.so.0:_ZN7CmdExec19exec_parsed_commandEv
liblftp-jobs.so.0:_ZN7CmdExec20RevertToSavedSessionEv
liblftp-jobs.so.0:_ZN7CmdExec2DoEv
liblftp-jobs.so.0:_ZN7CmdExec4DoneEv
liblftp-jobs.so.0:_ZN7CmdExec4ExitEi
liblftp-jobs.so.0:_ZN7CmdExec4IdleEv
liblftp-jobs.so.0:_ZN7CmdExec4initEP14LocalDirectory
liblftp-jobs.so.0:_ZN7CmdExec6AtExitEv
liblftp-jobs.so.0:_ZN7CmdExec7FeedCmdEPKc
liblftp-jobs.so.0:_ZN7CmdExec7SaveCWDEv
liblftp-jobs.so.0:_ZN7CmdExec7cmd_rec3cmpEPKS0_S2_
liblftp-jobs.so.0:_ZN7CmdExec8AtExitBgEv
liblftp-jobs.so.0:_ZN7CmdExec8AtExitFgEv
liblftp-jobs.so.0:_ZN7CmdExec8AtFinishEv
liblftp-jobs.so.0:_ZN7CmdExec8FeedArgVEPK4ArgVi
liblftp-jobs.so.0:_ZN7CmdExec8GetQueueEb
liblftp-jobs.so.0:_ZN7CmdExec8ReadCmdsEi
liblftp-jobs.so.0:_ZN7CmdExec8ReconfigEPKc
liblftp-jobs.so.0:_ZN7CmdExec8find_cmdEPKcPPKNS_7cmd_recE
liblftp-jobs.so.0:_ZN7CmdExec8quotableEcc
liblftp-jobs.so.0:_ZN7CmdExec8skip_cmdEi
liblftp-jobs.so.0:_ZN7CmdExec9AcceptSigEi
liblftp-jobs.so.0:_ZN7CmdExec9AddNewJobEP3Job
liblftp-jobs.so.0:_ZN7CmdExec9EmptyCmdsEv
liblftp-jobs.so.0:_ZN7CmdExecC1EP10FileAccessP14LocalDirectory
liblftp-jobs.so.0:_ZN7CmdExecC1EPS_
liblftp-jobs.so.0:_ZN7CmdExecC2EP10FileAccessP14LocalDirectory
liblftp-jobs.so.0:_ZN7CmdExecC2EPS_
liblftp-jobs.so.0:_ZN7CmdExecD0Ev
liblftp-jobs.so.0:_ZN7CmdExecD1Ev
liblftp-jobs.so.0:_ZN7CmdExecD2Ev
liblftp-jobs.so.0:_ZN7CopyJob11SetDispNameEv
liblftp-jobs.so.0:_ZN7CopyJob11SqueezeNameEib
liblftp-jobs.so.0:_ZN7CopyJob12FormatStatusER7xstringiPKc
liblftp-jobs.so.0:_ZN7CopyJob12PrepareToDieEv
liblftp-jobs.so.0:_ZN7CopyJob13ShowRunStatusERK9SMTaskRefI10StatusLineE
liblftp-jobs.so.0:_ZN7CopyJob19FormatBytesTimeRateEld
liblftp-jobs.so.0:_ZN7CopyJob2DoEv
liblftp-jobs.so.0:_ZN7CopyJob6StatusEPK10StatusLineb
liblftp-jobs.so.0:_ZN7CopyJob8ExitCodeEv
liblftp-jobs.so.0:_ZN7CopyJob9AcceptSigEi
liblftp-jobs.so.0:_ZN7CopyJobC1EP8FileCopyPKcS3_
liblftp-jobs.so.0:_ZN7CopyJobC2EP8FileCopyPKcS3_
liblftp-jobs.so.0:_ZN7CopyJobD0Ev
liblftp-jobs.so.0:_ZN7CopyJobD1Ev
liblftp-jobs.so.0:_ZN7CopyJobD2Ev
liblftp-jobs.so.0:_ZN7EditJob2DoEv
liblftp-jobs.so.0:_ZN7EditJob6FinishEi
liblftp-jobs.so.0:_ZN7EditJob9HandleJobER9SMTaskRefI3JobEb
liblftp-jobs.so.0:_ZN7History11extract_urlEPKc
liblftp-jobs.so.0:_ZN7History13extract_stampEPKc
liblftp-jobs.so.0:_ZN7History3SetEPK10FileAccessRKNS0_4PathE
liblftp-jobs.so.0:_ZN7History4LoadEv
liblftp-jobs.so.0:_ZN7History4SaveEv
liblftp-jobs.so.0:_ZN7History5CloseEv
liblftp-jobs.so.0:_ZN7History6LookupEPK10FileAccess
liblftp-jobs.so.0:_ZN7History7RefreshEv
liblftp-jobs.so.0:_ZN7HistoryC1Ev
liblftp-jobs.so.0:_ZN7HistoryC2Ev
liblftp-jobs.so.0:_ZN7HistoryD0Ev
liblftp-jobs.so.0:_ZN7HistoryD1Ev
liblftp-jobs.so.0:_ZN7HistoryD2Ev
liblftp-jobs.so.0:_ZN7echoJob13ShowRunStatusERK9SMTaskRefI10StatusLineE
liblftp-jobs.so.0:_ZN7echoJob2BgEv
liblftp-jobs.so.0:_ZN7echoJob2FgEv
liblftp-jobs.so.0:_ZN7echoJob4DoneEv
liblftp-jobs.so.0:_ZN7echoJob8ExitCodeEv
liblftp-jobs.so.0:_ZN7echoJobC1EPKcP9OutputJob
liblftp-jobs.so.0:_ZN7echoJobC1EPKciP9OutputJob
liblftp-jobs.so.0:_ZN7echoJobC2EPKcP9OutputJob
liblftp-jobs.so.0:_ZN7echoJobC2EPKciP9OutputJob
liblftp-jobs.so.0:_ZN7echoJobD0Ev
liblftp-jobs.so.0:_ZN7echoJobD1Ev
liblftp-jobs.so.0:_ZN7echoJobD2Ev
liblftp-jobs.so.0:_ZN7mgetJob12FormatStatusER7xstringiPKc
liblftp-jobs.so.0:_ZN7mgetJob13ShowRunStatusERK9SMTaskRefI10StatusLineE
liblftp-jobs.so.0:_ZN7mgetJob2DoEv
liblftp-jobs.so.0:_ZN7mgetJobC1EP10FileAccessPK4ArgVbb
liblftp-jobs.so.0:_ZN7mgetJobC2EP10FileAccessPK4ArgVbb
liblftp-jobs.so.0:_ZN7mgetJobD0Ev
liblftp-jobs.so.0:_ZN7mgetJobD1Ev
liblftp-jobs.so.0:_ZN7mgetJobD2Ev
liblftp-jobs.so.0:_ZN7pgetJob10FormatJobsER7xstringii
liblftp-jobs.so.0:_ZN7pgetJob10InitChunksEll
liblftp-jobs.so.0:_ZN7pgetJob10LoadStatusEv
liblftp-jobs.so.0:_ZN7pgetJob10SaveStatusEv
liblftp-jobs.so.0:_ZN7pgetJob11LoadStatus0Ev
liblftp-jobs.so.0:_ZN7pgetJob11free_chunksEv
liblftp-jobs.so.0:_ZN7pgetJob12FormatStatusER7xstringiPKc
liblftp-jobs.so.0:_ZN7pgetJob12PrepareToDieEv
liblftp-jobs.so.0:_ZN7pgetJob13ShowRunStatusERK9SMTaskRefI10StatusLineE
liblftp-jobs.so.0:_ZN7pgetJob2DoEv
liblftp-jobs.so.0:_ZN7pgetJob8NewChunkEPKcll
liblftp-jobs.so.0:_ZN7pgetJob9ChunkXferC1EP8FileCopyPKcll
liblftp-jobs.so.0:_ZN7pgetJob9ChunkXferC2EP8FileCopyPKcll
liblftp-jobs.so.0:_ZN7pgetJobC1EP8FileCopyPKci
liblftp-jobs.so.0:_ZN7pgetJobC2EP8FileCopyPKci
liblftp-jobs.so.0:_ZN7pgetJobD0Ev
liblftp-jobs.so.0:_ZN7pgetJobD1Ev
liblftp-jobs.so.0:_ZN7pgetJobD2Ev
liblftp-jobs.so.0:_ZN7xstring13append_quotedEPKci
liblftp-jobs.so.0:_ZN8ChmodJob12SetVerbosityENS_9verbosityE
liblftp-jobs.so.0:_ZN8ChmodJob12TreatCurrentEPKcPK8FileInfo
liblftp-jobs.so.0:_ZN8ChmodJob15CurrentFinishedEPKcPK8FileInfo
liblftp-jobs.so.0:_ZN8ChmodJob4InitEv
liblftp-jobs.so.0:_ZN8ChmodJob7RecurseEv
liblftp-jobs.so.0:_ZN8ChmodJob7SetModeEP11mode_change
liblftp-jobs.so.0:_ZN8ChmodJobC1EP10FileAccessP4ArgV
liblftp-jobs.so.0:_ZN8ChmodJobC1EP10FileAccessiP4ArgV
liblftp-jobs.so.0:_ZN8ChmodJobC2EP10FileAccessP4ArgV
liblftp-jobs.so.0:_ZN8ChmodJobC2EP10FileAccessiP4ArgV
liblftp-jobs.so.0:_ZN8ChmodJobD0Ev
liblftp-jobs.so.0:_ZN8ChmodJobD1Ev
liblftp-jobs.so.0:_ZN8ChmodJobD2Ev
liblftp-jobs.so.0:_ZN8mkdirJob12FormatStatusER7xstringiPKc
liblftp-jobs.so.0:_ZN8mkdirJob13ShowRunStatusERK9SMTaskRefI10StatusLineE
liblftp-jobs.so.0:_ZN8mkdirJob2BgEv
liblftp-jobs.so.0:_ZN8mkdirJob2DoEv
liblftp-jobs.so.0:_ZN8mkdirJob2FgEv
liblftp-jobs.so.0:_ZN8mkdirJob8SayFinalEv
liblftp-jobs.so.0:_ZN8mkdirJobC1EP10FileAccessP4ArgV
liblftp-jobs.so.0:_ZN8mkdirJobC2EP10FileAccessP4ArgV
liblftp-jobs.so.0:_ZN9FinderJob11ProcessFileEPKcPK8FileInfo
liblftp-jobs.so.0:_ZN9FinderJob12FormatStatusER7xstringiPKc
liblftp-jobs.so.0:_ZN9FinderJob13ShowRunStatusERK9SMTaskRefI10StatusLineE
liblftp-jobs.so.0:_ZN9FinderJob2BgEv
liblftp-jobs.so.0:_ZN9FinderJob2DoEv
liblftp-jobs.so.0:_ZN9FinderJob2FgEv
liblftp-jobs.so.0:_ZN9FinderJob2UpEv
liblftp-jobs.so.0:_ZN9FinderJob4DownEPKc
liblftp-jobs.so.0:_ZN9FinderJob4InitEv
liblftp-jobs.so.0:_ZN9FinderJob4PushEP7FileSet
liblftp-jobs.so.0:_ZN9FinderJob7NextDirEPKc
liblftp-jobs.so.0:_ZN9FinderJobC1EP10FileAccess
liblftp-jobs.so.0:_ZN9FinderJobC2EP10FileAccess
liblftp-jobs.so.0:_ZN9FinderJobD0Ev
liblftp-jobs.so.0:_ZN9FinderJobD1Ev
liblftp-jobs.so.0:_ZN9FinderJobD2Ev
liblftp-jobs.so.0:_ZN9OutputJob12PrepareToDieEv
liblftp-jobs.so.0:_ZN9OutputJob14ResumeInternalEv
liblftp-jobs.so.0:_ZN9OutputJob14ShowStatusLineERK9SMTaskRefI10StatusLineE
liblftp-jobs.so.0:_ZN9OutputJob15SuspendInternalEv
liblftp-jobs.so.0:_ZN9OutputJob2BgEv
liblftp-jobs.so.0:_ZN9OutputJob2DoEv
liblftp-jobs.so.0:_ZN9OutputJob2FgEv
liblftp-jobs.so.0:_ZN9OutputJob3PutEPKci
liblftp-jobs.so.0:_ZN9OutputJob4DoneEv
liblftp-jobs.so.0:_ZN9OutputJob4FullEv
liblftp-jobs.so.0:_ZN9OutputJob4InitEPKc
liblftp-jobs.so.0:_ZN9OutputJob5ErrorEv
liblftp-jobs.so.0:_ZN9OutputJob6FormatEPKcz
liblftp-jobs.so.0:_ZN9OutputJob6PutEOFEv
liblftp-jobs.so.0:_ZN9OutputJob6StatusEPK10StatusLine
liblftp-jobs.so.0:_ZN9OutputJob8InitCopyEv
liblftp-jobs.so.0:_ZN9OutputJob9AcceptSigEi
liblftp-jobs.so.0:_ZN9OutputJob9PreFilterEPKc
liblftp-jobs.so.0:_ZN9OutputJobC1EP8FDStreamPKc
liblftp-jobs.so.0:_ZN9OutputJobC1EPKcS1_P10FileAccess
liblftp-jobs.so.0:_ZN9OutputJobC2EP8FDStreamPKc
liblftp-jobs.so.0:_ZN9OutputJobC2EPKcS1_P10FileAccess
liblftp-jobs.so.0:_ZN9SysCmdJob12PrepareToDieEv
liblftp-jobs.so.0:_ZN9SysCmdJob2DoEv
liblftp-jobs.so.0:_ZN9SysCmdJob9AcceptSigEi
liblftp-jobs.so.0:_ZN9SysCmdJobC1EPKc
liblftp-jobs.so.0:_ZN9SysCmdJobC2EPKc
liblftp-jobs.so.0:_ZN9SysCmdJobD0Ev
liblftp-jobs.so.0:_ZN9SysCmdJobD1Ev
liblftp-jobs.so.0:_ZN9SysCmdJobD2Ev
liblftp-jobs.so.0:_ZNK11QueueFeeder10FormatJobsER7xstringPKNS_8QueueJobEiPKc
liblftp-jobs.so.0:_ZNK11QueueFeeder12FormatStatusER7xstringiPKc
liblftp-jobs.so.0:_ZNK11QueueFeeder9PrintJobsEPKNS_8QueueJobEiPKc
liblftp-jobs.so.0:_ZNK12ColumnOutput14get_print_infoEjR6xarrayIiES2_Ri
liblftp-jobs.so.0:_ZNK12ColumnOutput5printERK9SMTaskRefI9OutputJobEjb
liblftp-jobs.so.0:_ZNK12FinderJob_Du9BlockCeilEl
liblftp-jobs.so.0:_ZNK13FileSetOutput14FileInfoSuffixERK8FileInfo
liblftp-jobs.so.0:_ZNK13FileSetOutput4NeedEv
liblftp-jobs.so.0:_ZNK13FileSetOutput5printER7FileSetRK9SMTaskRefI9OutputJobE
liblftp-jobs.so.0:_ZNK4ArgV12CombineCmdToER7xstringi
liblftp-jobs.so.0:_ZNK4ArgV15CombineQuotedToER7xstringi
liblftp-jobs.so.0:_ZNK5datum5printERK9SMTaskRefI9OutputJobEbiPKcS6_S6_
liblftp-jobs.so.0:_ZNK5mvJob6doOpenEv
liblftp-jobs.so.0:_ZNK6mmvJob6doOpenEv
liblftp-jobs.so.0:_ZNK7CmdExec9WriteCmdsEi
liblftp-jobs.so.0:_ZNK8ChmodJob12RelativeModeEPK11mode_change
liblftp-jobs.so.0:_ZNK8ChmodJob7GetModeEPK8FileInfo
liblftp-jobs.so.0:_ZNK9OutputJob10OutputPeerEv
liblftp-jobs.so.0:_ZNK9OutputJob5IsTTYEv
liblftp-jobs.so.0:_ZNK9OutputJob8GetWidthEv
liblftp-jobs.so.0:_ZNK9OutputJob9InputPeerEv
liblftp-jobs.so.0:_ZThn288_N7CmdExec8ReconfigEPKc
liblftp-jobs.so.0:_ZThn288_N7CmdExecD0Ev
liblftp-jobs.so.0:_ZThn288_N7CmdExecD1Ev
liblftp-jobs.so.0:_ZThn456_N7mgetJobD0Ev
liblftp-jobs.so.0:_ZThn456_N7mgetJobD1Ev
liblftp-tasks.so.0:_Z10guess_yeariiii
liblftp-tasks.so.0:_Z10xgetcwd_toR7xstring
liblftp-tasks.so.0:_Z11module_loadPKciPKS0_
liblftp-tasks.so.0:_Z11parse_monthPKc
liblftp-tasks.so.0:_Z11parse_permsPKc
liblftp-tasks.so.0:_Z11random_initv
liblftp-tasks.so.0:_Z11remove_tagsPc
liblftp-tasks.so.0:_Z12basename_ptrPKc
liblftp-tasks.so.0:_Z12format_permsi
liblftp-tasks.so.0:_Z12get_lftp_dirRPcPKcS2_
liblftp-tasks.so.0:_Z12get_nodenamev
liblftp-tasks.so.0:_Z12shell_encodePKci
liblftp-tasks.so.0:_Z12xtld_name_okPKc
liblftp-tasks.so.0:_Z13base64_encodePKcPci
liblftp-tasks.so.0:_Z13base64_lengthi
liblftp-tasks.so.0:_Z13xgettimeofdayPlPi
liblftp-tasks.so.0:_Z14dirname_modifyR7xstring
liblftp-tasks.so.0:_Z14lftp_fallocateil
liblftp-tasks.so.0:_Z14mktime_from_tzP2tmPKc
liblftp-tasks.so.0:_Z14xidna_to_asciiPKc
liblftp-tasks.so.0:_Z15is_ipv4_addressPKc
liblftp-tasks.so.0:_Z15is_ipv6_addressPKc
liblftp-tasks.so.0:_Z15mktime_from_utcPK2tm
liblftp-tasks.so.0:_Z16is_shell_specialc
liblftp-tasks.so.0:_Z16output_file_namePKcS0_bS0_b
liblftp-tasks.so.0:_Z17call_dynamic_hookPKc
liblftp-tasks.so.0:_Z17squeeze_file_namePKci
liblftp-tasks.so.0:_Z18create_directoriesPc
liblftp-tasks.so.0:_Z18in_foreground_pgrpv
liblftp-tasks.so.0:_Z18parse_year_or_timePKcPiS1_S1_
liblftp-tasks.so.0:_Z18readline_from_filei
liblftp-tasks.so.0:_Z18truncate_file_treePKc
liblftp-tasks.so.0:_Z19get_string_term_capPKcS0_
liblftp-tasks.so.0:_Z20expand_home_relativePKc
liblftp-tasks.so.0:_Z20module_error_messagev
liblftp-tasks.so.0:_Z21module_init_preloadedPKc
liblftp-tasks.so.0:_Z22get_lftp_home_nocreatev
liblftp-tasks.so.0:_Z22strip_trailing_slashesR7xstring
liblftp-tasks.so.0:_Z22xmalloc_register_blockPv
liblftp-tasks.so.0:_Z23get_lftp_home_if_existsv
liblftp-tasks.so.0:_Z23temporary_network_errori
liblftp-tasks.so.0:_Z5rtrimPc
liblftp-tasks.so.0:_Z5xfreePv
liblftp-tasks.so.0:_Z6xhumanx
liblftp-tasks.so.0:_Z7GetPassPKc
liblftp-tasks.so.0:_Z7SubstToR7xstringPKcPK7subst_t
liblftp-tasks.so.0:_Z7dirnamePKc
liblftp-tasks.so.0:_Z7memrchrPKccm
liblftp-tasks.so.0:_Z7percentll
liblftp-tasks.so.0:_Z7xgetcwdv
liblftp-tasks.so.0:_Z7xmallocm
liblftp-tasks.so.0:_Z7xstrdupPKci
liblftp-tasks.so.0:_Z7xstrsetRPcPKc
liblftp-tasks.so.0:_Z7xstrsetRPcPKcm
liblftp-tasks.so.0:_Z8dir_filePKcS0_
liblftp-tasks.so.0:_Z8fd_widthi
liblftp-tasks.so.0:_Z8random01v
liblftp-tasks.so.0:_Z8re_matchPKcS0_i
liblftp-tasks.so.0:_Z8url_filePKcS0_
liblftp-tasks.so.0:_Z8xreallocPvm
liblftp-tasks.so.0:_Z9last_charPKc
liblftp-tasks.so.0:_Z9xstrftimePKcPK2tm
liblftp-tasks.so.0:_ZN10CharReader2DoEv
liblftp-tasks.so.0:_ZN10DummyProto11MakeDirListEP4ArgV
liblftp-tasks.so.0:_ZN10DummyProto11StoreStatusEv
liblftp-tasks.so.0:_ZN10DummyProto12MakeListInfoEPKc
liblftp-tasks.so.0:_ZN10DummyProto2DoEv
liblftp-tasks.so.0:_ZN10DummyProto4DoneEv
liblftp-tasks.so.0:_ZN10DummyProto4ReadEP6Bufferi
liblftp-tasks.so.0:_ZN10DummyProto5WriteEPKvi
liblftp-tasks.so.0:_ZN10DummyProtoC1Ev
liblftp-tasks.so.0:_ZN10DummyProtoC2Ev
liblftp-tasks.so.0:_ZN10DummyProtoD0Ev
liblftp-tasks.so.0:_ZN10DummyProtoD1Ev
liblftp-tasks.so.0:_ZN10DummyProtoD2Ev
liblftp-tasks.so.0:_ZN10FileAccess10CleanupAllEv
liblftp-tasks.so.0:_ZN10FileAccess10ClearErrorEv
liblftp-tasks.so.0:_ZN10FileAccess10PathVerifyERKNS_4PathE
liblftp-tasks.so.0:_ZN10FileAccess10SetFileURLEPKc
liblftp-tasks.so.0:_ZN10FileAccess10SetTryTimeEl
liblftp-tasks.so.0:_ZN10FileAccess11CleanupThisEv
liblftp-tasks.so.0:_ZN10FileAccess11MakeDirListEP4ArgV
liblftp-tasks.so.0:_ZN10FileAccess12ClassCleanupEv
liblftp-tasks.so.0:_ZN10FileAccess12GetInfoArrayEP7FileSet
liblftp-tasks.so.0:_ZN10FileAccess12MakeListInfoEPKc
liblftp-tasks.so.0:_ZN10FileAccess13ConnectVerifyEv
liblftp-tasks.so.0:_ZN10FileAccess13CurrentStatusEv
liblftp-tasks.so.0:_ZN10FileAccess16ExpandTildeInCWDEv
liblftp-tasks.so.0:_ZN10FileAccess17ResetLocationDataEv
liblftp-tasks.so.0:_ZN10FileAccess17SetPasswordGlobalEPKc
liblftp-tasks.so.0:_ZN10FileAccess20SetSuggestedFileNameEPKc
liblftp-tasks.so.0:_ZN10FileAccess22NeedSizeDateBeforehandEv
liblftp-tasks.so.0:_ZN10FileAccess3NewEPK9ParsedURLb
liblftp-tasks.so.0:_ZN10FileAccess3NewEPKcS1_S1_
liblftp-tasks.so.0:_ZN10FileAccess4InitEv
liblftp-tasks.so.0:_ZN10FileAccess4OpenEPKcil
liblftp-tasks.so.0:_ZN10FileAccess4Path11ExpandTildeERKS0_
liblftp-tasks.so.0:_ZN10FileAccess4Path3SetEPKS0_
liblftp-tasks.so.0:_ZN10FileAccess4Path3SetEPKcbS2_i
liblftp-tasks.so.0:_ZN10FileAccess4Path4initEv
liblftp-tasks.so.0:_ZN10FileAccess4Path6ChangeEPKcbS2_i
liblftp-tasks.so.0:_ZN10FileAccess4Path8OptimizeER7xstringi
liblftp-tasks.so.0:_ZN10FileAccess4PathD1Ev
liblftp-tasks.so.0:_ZN10FileAccess4PathD2Ev
liblftp-tasks.so.0:_ZN10FileAccess5ChdirEPKcb
liblftp-tasks.so.0:_ZN10FileAccess5ChmodEPKci
liblftp-tasks.so.0:_ZN10FileAccess5CloseEv
liblftp-tasks.so.0:_ZN10FileAccess5FatalEPKc
liblftp-tasks.so.0:_ZN10FileAccess5LoginEPKcS1_
liblftp-tasks.so.0:_ZN10FileAccess5MkdirEPKcb
liblftp-tasks.so.0:_ZN10FileAccess5Open2EPKcS1_NS_9open_modeE
liblftp-tasks.so.0:_ZN10FileAccess6RenameEPKcS1_b
liblftp-tasks.so.0:_ZN10FileAccess7CleanupEv
liblftp-tasks.so.0:_ZN10FileAccess7ConnectEPKcS1_
liblftp-tasks.so.0:_ZN10FileAccess7IOReadyEv
liblftp-tasks.so.0:_ZN10FileAccess8BufferedEv
liblftp-tasks.so.0:_ZN10FileAccess8MakeGlobEPKc
liblftp-tasks.so.0:_ZN10FileAccess8Protocol10NewSessionEPKc
liblftp-tasks.so.0:_ZN10FileAccess8Protocol9FindProtoEPKc
liblftp-tasks.so.0:_ZN10FileAccess8ProtocolC1EPKcPFPS_vE
liblftp-tasks.so.0:_ZN10FileAccess8ProtocolC2EPKcPFPS_vE
liblftp-tasks.so.0:_ZN10FileAccess8ReconfigEPKc
liblftp-tasks.so.0:_ZN10FileAccess8SetErrorEiPKc
liblftp-tasks.so.0:_ZN10FileAccess8StrErrorEi
liblftp-tasks.so.0:_ZN10FileAccess8UseCacheEb
liblftp-tasks.so.0:_ZN10FileAccess8set_homeEPKc
liblftp-tasks.so.0:_ZN10FileAccess9ClassInitEv
liblftp-tasks.so.0:_ZN10FileAccessC1EPKS_
liblftp-tasks.so.0:_ZN10FileAccessC2EPKS_
liblftp-tasks.so.0:_ZN10FileAccessD0Ev
liblftp-tasks.so.0:_ZN10FileAccessD1Ev
liblftp-tasks.so.0:_ZN10FileAccessD2Ev
liblftp-tasks.so.0:_ZN10FileStream13remove_backupEv
liblftp-tasks.so.0:_ZN10FileStream13revert_backupEv
liblftp-tasks.so.0:_ZN10FileStream15remove_if_emptyEv
liblftp-tasks.so.0:_ZN10FileStream5getfdEv
liblftp-tasks.so.0:_ZN10FileStream6removeEv
liblftp-tasks.so.0:_ZN10FileStream8can_seekEv
liblftp-tasks.so.0:_ZN10FileStream8get_sizeEv
liblftp-tasks.so.0:_ZN10FileStream8setmtimeERK13FileTimestamp
liblftp-tasks.so.0:_ZN10FileStreamC1EPKci
liblftp-tasks.so.0:_ZN10FileStreamC2EPKci
liblftp-tasks.so.0:_ZN10FileStreamD0Ev
liblftp-tasks.so.0:_ZN10FileStreamD1Ev
liblftp-tasks.so.0:_ZN10FileStreamD2Ev
liblftp-tasks.so.0:_ZN10GroupCache10get_recordEPKc
liblftp-tasks.so.0:_ZN10GroupCache10get_recordEi
liblftp-tasks.so.0:_ZN10GroupCache11GetInstanceEv
liblftp-tasks.so.0:_ZN10GroupCacheD0Ev
liblftp-tasks.so.0:_ZN10GroupCacheD1Ev
liblftp-tasks.so.0:_ZN10GroupCacheD2Ev
liblftp-tasks.so.0:_ZN10KeyValueDB11VKeyCompareEPKvS1_
liblftp-tasks.so.0:_ZN10KeyValueDB3AddEPKcS1_
liblftp-tasks.so.0:_ZN10KeyValueDB4LockEii
liblftp-tasks.so.0:_ZN10KeyValueDB4ReadEi
liblftp-tasks.so.0:_ZN10KeyValueDB4SortEv
liblftp-tasks.so.0:_ZN10KeyValueDB5WriteEi
liblftp-tasks.so.0:_ZN10KeyValueDB6FormatE13StringMangler
liblftp-tasks.so.0:_ZN10KeyValueDB6RemoveEPKc
liblftp-tasks.so.0:_ZN10NumberPair3SetEPKc
liblftp-tasks.so.0:_ZN10NumberPair4initEcPKc
liblftp-tasks.so.0:_ZN10NumberPair6parse1EPKc
liblftp-tasks.so.0:_ZN10PatternSet3AddENS_4TypeEPNS_7PatternE
liblftp-tasks.so.0:_ZN10PatternSet4Glob5MatchEPKc
liblftp-tasks.so.0:_ZN10PatternSet4GlobC1EPKc
liblftp-tasks.so.0:_ZN10PatternSet4GlobC2EPKc
liblftp-tasks.so.0:_ZN10PatternSet5Regex5MatchEPKc
liblftp-tasks.so.0:_ZN10PatternSet5RegexC1EPKc
liblftp-tasks.so.0:_ZN10PatternSet5RegexC2EPKc
liblftp-tasks.so.0:_ZN10PatternSet5RegexD0Ev
liblftp-tasks.so.0:_ZN10PatternSet5RegexD1Ev
liblftp-tasks.so.0:_ZN10PatternSet5RegexD2Ev
liblftp-tasks.so.0:_ZN10PatternSet8AddFirstENS_4TypeEPNS_7PatternE
liblftp-tasks.so.0:_ZN10PatternSetC1Ev
liblftp-tasks.so.0:_ZN10PatternSetC2Ev
liblftp-tasks.so.0:_ZN10PatternSetD1Ev
liblftp-tasks.so.0:_ZN10PatternSetD2Ev
liblftp-tasks.so.0:_ZN10SMTaskInit2DoEv
liblftp-tasks.so.0:_ZN10SMTaskInitC1Ev
liblftp-tasks.so.0:_ZN10SMTaskInitC2Ev
liblftp-tasks.so.0:_ZN10SMTaskInitD0Ev
liblftp-tasks.so.0:_ZN10SMTaskInitD1Ev
liblftp-tasks.so.0:_ZN10SMTaskInitD2Ev
liblftp-tasks.so.0:_ZN10SignalHook10RestoreAllEv
liblftp-tasks.so.0:_ZN10SignalHook10set_signalEiPFviE
liblftp-tasks.so.0:_ZN10SignalHook11cnt_handlerEi
liblftp-tasks.so.0:_ZN10SignalHook5BlockEi
liblftp-tasks.so.0:_ZN10SignalHook7CleanupEv
liblftp-tasks.so.0:_ZN10SignalHook7RestoreEi
liblftp-tasks.so.0:_ZN10SignalHook7UnblockEi
liblftp-tasks.so.0:_ZN10SignalHook9ClassInitEv
liblftp-tasks.so.0:_ZN10StatusLine12DefaultTitleEPKc
liblftp-tasks.so.0:_ZN10StatusLine2DoEv
liblftp-tasks.so.0:_ZN10StatusLine4ShowEPKcz
liblftp-tasks.so.0:_ZN10StatusLine5ClearEb
liblftp-tasks.so.0:_ZN10StatusLine5ShowNEPKPKci
liblftp-tasks.so.0:_ZN10StatusLine6updateEPKPKci
liblftp-tasks.so.0:_ZN10StatusLine8GetWidthEv
liblftp-tasks.so.0:_ZN10StatusLine9WriteLineEPKcz
liblftp-tasks.so.0:_ZN10StatusLineC1Ei
liblftp-tasks.so.0:_ZN10StatusLineC2Ei
liblftp-tasks.so.0:_ZN10StatusLineD0Ev
liblftp-tasks.so.0:_ZN10StatusLineD1Ev
liblftp-tasks.so.0:_ZN10StatusLineD2Ev
liblftp-tasks.so.0:_ZN10StringPool3GetEPKc
liblftp-tasks.so.0:_ZN10time_tuple3addEd
liblftp-tasks.so.0:_ZN10time_tuple4addUEli
liblftp-tasks.so.0:_ZN10time_tuple9normalizeEv
liblftp-tasks.so.0:_ZN11DataRecoder13PutTranslatedEP6BufferPKci
liblftp-tasks.so.0:_ZN11DataRecoder16ResetTranslationEv
liblftp-tasks.so.0:_ZN11DataRecoderC1EPKcS1_b
liblftp-tasks.so.0:_ZN11DataRecoderC2EPKcS1_b
liblftp-tasks.so.0:_ZN11DataRecoderD0Ev
liblftp-tasks.so.0:_ZN11DataRecoderD1Ev
liblftp-tasks.so.0:_ZN11DataRecoderD2Ev
liblftp-tasks.so.0:_ZN11GenericGlob2DoEv
liblftp-tasks.so.0:_ZN11GenericGlob6StatusEv
liblftp-tasks.so.0:_ZN11GenericGlobC1EP10FileAccessPKc
liblftp-tasks.so.0:_ZN11GenericGlobC2EP10FileAccessPKc
liblftp-tasks.so.0:_ZN11GetFileInfo12PrepareToDieEv
liblftp-tasks.so.0:_ZN11GetFileInfo2DoEv
liblftp-tasks.so.0:_ZN11GetFileInfo6StatusEv
liblftp-tasks.so.0:_ZN11GetFileInfoC1ERK13FileAccessRefPKcb
liblftp-tasks.so.0:_ZN11GetFileInfoC2ERK13FileAccessRefPKcb
liblftp-tasks.so.0:_ZN11GetFileInfoD0Ev
liblftp-tasks.so.0:_ZN11GetFileInfoD1Ev
liblftp-tasks.so.0:_ZN11GetFileInfoD2Ev
liblftp-tasks.so.0:_ZN11IdNameCache10get_recordEPKc
liblftp-tasks.so.0:_ZN11IdNameCache2DoEv
liblftp-tasks.so.0:_ZN11IdNameCache3addEjPP10IdNamePairS1_
liblftp-tasks.so.0:_ZN11IdNameCache4freeEv
liblftp-tasks.so.0:_ZN11IdNameCache4hashEPKc
liblftp-tasks.so.0:_ZN11IdNameCache4hashEi
liblftp-tasks.so.0:_ZN11IdNameCache4initEv
liblftp-tasks.so.0:_ZN11IdNameCache6LookupEPKc
liblftp-tasks.so.0:_ZN11IdNameCache6LookupEi
liblftp-tasks.so.0:_ZN11IdNameCache6lookupEPKc
liblftp-tasks.so.0:_ZN11IdNameCache6lookupEi
liblftp-tasks.so.0:_ZN11IdNameCache9free_listEP10IdNamePair
liblftp-tasks.so.0:_ZN11IdNameCacheC1Ev
liblftp-tasks.so.0:_ZN11IdNameCacheC2Ev
liblftp-tasks.so.0:_ZN11IdNameCacheD0Ev
liblftp-tasks.so.0:_ZN11IdNameCacheD1Ev
liblftp-tasks.so.0:_ZN11IdNameCacheD2Ev
liblftp-tasks.so.0:_ZN11InputFilter5ChildEPi
liblftp-tasks.so.0:_ZN11InputFilter6ParentEPi
liblftp-tasks.so.0:_ZN11PasswdCache10get_recordEPKc
liblftp-tasks.so.0:_ZN11PasswdCache10get_recordEi
liblftp-tasks.so.0:_ZN11PasswdCache11GetInstanceEv
liblftp-tasks.so.0:_ZN11PasswdCacheD0Ev
liblftp-tasks.so.0:_ZN11PasswdCacheD1Ev
liblftp-tasks.so.0:_ZN11PasswdCacheD2Ev
liblftp-tasks.so.0:_ZN11SessionPool10GetSessionEi
liblftp-tasks.so.0:_ZN11SessionPool4WalkEPiPKc
liblftp-tasks.so.0:_ZN11SessionPool5PrintEP8_IO_FILE
liblftp-tasks.so.0:_ZN11SessionPool5ReuseEP10FileAccess
liblftp-tasks.so.0:_ZN11SessionPool8ClearAllEv
liblftp-tasks.so.0:_ZN11Speedometer12GetStrProperEf
liblftp-tasks.so.0:_ZN11Speedometer17GetETAStrFromSizeEl
liblftp-tasks.so.0:_ZN11Speedometer17GetETAStrFromTimeEl
liblftp-tasks.so.0:_ZN11Speedometer18GetETAStrSFromSizeEl
liblftp-tasks.so.0:_ZN11Speedometer18GetETAStrSFromTimeEl
liblftp-tasks.so.0:_ZN11Speedometer3AddEi
liblftp-tasks.so.0:_ZN11Speedometer3GetEv
liblftp-tasks.so.0:_ZN11Speedometer5ResetEv
liblftp-tasks.so.0:_ZN11Speedometer5ValidEv
liblftp-tasks.so.0:_ZN11Speedometer6GetStrEf
liblftp-tasks.so.0:_ZN11Speedometer6GetStrEv
liblftp-tasks.so.0:_ZN11Speedometer7GetStrSEf
liblftp-tasks.so.0:_ZN11Speedometer7GetStrSEv
liblftp-tasks.so.0:_ZN11Speedometer8ReconfigEPKc
liblftp-tasks.so.0:_ZN11SpeedometerC1EPKc
liblftp-tasks.so.0:_ZN11SpeedometerC2EPKc
liblftp-tasks.so.0:_ZN12DummyNoProto8StrErrorEi
liblftp-tasks.so.0:_ZN12FileCopyPeer11UseTempFileEPKc
liblftp-tasks.so.0:_ZN12FileCopyPeer4DoneEv
liblftp-tasks.so.0:_ZN12FileCopyPeer4SeekEl
liblftp-tasks.so.0:_ZN12FileCopyPeer7GetSizeEv
liblftp-tasks.so.0:_ZN12FileCopyPeer7SetDateEli
liblftp-tasks.so.0:_ZN12FileCopyPeer7SetSizeEl
liblftp-tasks.so.0:_ZN12FileCopyPeer8SetRangeEll
liblftp-tasks.so.0:_ZN12FileCopyPeerC1EN14DirectedBuffer5dir_tE
liblftp-tasks.so.0:_ZN12FileCopyPeerC2EN14DirectedBuffer5dir_tE
liblftp-tasks.so.0:_ZN12LsCacheEntryC1EPK10FileAccessPKciiS4_iPK7FileSet
liblftp-tasks.so.0:_ZN12LsCacheEntryC2EPK10FileAccessPKciiS4_iPK7FileSet
liblftp-tasks.so.0:_ZN12OutputFilter4DoneEv
liblftp-tasks.so.0:_ZN12OutputFilter4InitEv
liblftp-tasks.so.0:_ZN12OutputFilter4KillEi
liblftp-tasks.so.0:_ZN12OutputFilter5ChildEPi
liblftp-tasks.so.0:_ZN12OutputFilter5getfdEv
liblftp-tasks.so.0:_ZN12OutputFilter6ParentEPi
liblftp-tasks.so.0:_ZN12OutputFilter6brokenEv
liblftp-tasks.so.0:_ZN12OutputFilter6usesfdEi
liblftp-tasks.so.0:_ZN12OutputFilterC1EP4ArgVP8FDStream
liblftp-tasks.so.0:_ZN12OutputFilterC1EP4ArgVRK3RefI8FDStreamE
liblftp-tasks.so.0:_ZN12OutputFilterC1EP4ArgVi
liblftp-tasks.so.0:_ZN12OutputFilterC1EPKcP8FDStream
liblftp-tasks.so.0:_ZN12OutputFilterC1EPKcRK3RefI8FDStreamE
liblftp-tasks.so.0:_ZN12OutputFilterC1EPKci
liblftp-tasks.so.0:_ZN12OutputFilterC2EP4ArgVP8FDStream
liblftp-tasks.so.0:_ZN12OutputFilterC2EP4ArgVRK3RefI8FDStreamE
liblftp-tasks.so.0:_ZN12OutputFilterC2EP4ArgVi
liblftp-tasks.so.0:_ZN12OutputFilterC2EPKcP8FDStream
liblftp-tasks.so.0:_ZN12OutputFilterC2EPKcRK3RefI8FDStreamE
liblftp-tasks.so.0:_ZN12OutputFilterC2EPKci
liblftp-tasks.so.0:_ZN12OutputFilterD0Ev
liblftp-tasks.so.0:_ZN12OutputFilterD1Ev
liblftp-tasks.so.0:_ZN12OutputFilterD2Ev
liblftp-tasks.so.0:_ZN12TimeInterval8toStringEj
liblftp-tasks.so.0:_ZN13FileAccessRefaSEP10FileAccess
liblftp-tasks.so.0:_ZN13TimeIntervalR4initEPKc
liblftp-tasks.so.0:_ZN14ConnectionSlot10FormatThisEv
liblftp-tasks.so.0:_ZN14ConnectionSlot11FindSessionEPKc
liblftp-tasks.so.0:_ZN14ConnectionSlot3SetEPKcPK10FileAccess
liblftp-tasks.so.0:_ZN14ConnectionSlot4FindEPKc
liblftp-tasks.so.0:_ZN14ConnectionSlot6FormatEv
liblftp-tasks.so.0:_ZN14ConnectionSlot6SetCwdEPKcRKN10FileAccess4PathE
liblftp-tasks.so.0:_ZN14ConnectionSlot7CleanupEv
liblftp-tasks.so.0:_ZN14ConnectionSlot9SlotValueC1EPKcPK10FileAccess
liblftp-tasks.so.0:_ZN14ConnectionSlot9SlotValueC1EPKcS2_
liblftp-tasks.so.0:_ZN14ConnectionSlot9SlotValueC2EPKcPK10FileAccess
liblftp-tasks.so.0:_ZN14ConnectionSlot9SlotValueC2EPKcS2_
liblftp-tasks.so.0:_ZN14ConnectionSlotC1Ev
liblftp-tasks.so.0:_ZN14ConnectionSlotC2Ev
liblftp-tasks.so.0:_ZN14ConnectionSlotD0Ev
liblftp-tasks.so.0:_ZN14ConnectionSlotD1Ev
liblftp-tasks.so.0:_ZN14ConnectionSlotD2Ev
liblftp-tasks.so.0:_ZN14DataTranslator16AppendTranslatedEP6BufferPKci
liblftp-tasks.so.0:_ZN14DirectedBuffer12MoveDataHereEP6Bufferi
liblftp-tasks.so.0:_ZN14DirectedBuffer13PutTranslatedEPKci
liblftp-tasks.so.0:_ZN14DirectedBuffer13SetTranslatorEP14DataTranslator
liblftp-tasks.so.0:_ZN14DirectedBuffer14EmbraceNewDataEi
liblftp-tasks.so.0:_ZN14DirectedBuffer14SetTranslationEPKcb
liblftp-tasks.so.0:_ZN14DirectedBuffer16ResetTranslationEv
liblftp-tasks.so.0:_ZN14DirectedBuffer3PutEPKci
liblftp-tasks.so.0:_ZN14DirectedBuffer6PutEOFEv
liblftp-tasks.so.0:_ZN14FileCopyPeerFA10GetRealPosEv
liblftp-tasks.so.0:_ZN14FileCopyPeerFA10RemoveFileEv
liblftp-tasks.so.0:_ZN14FileCopyPeerFA11OpenSessionEv
liblftp-tasks.so.0:_ZN14FileCopyPeerFA12PrepareToDieEv
liblftp-tasks.so.0:_ZN14FileCopyPeerFA14ResumeInternalEv
liblftp-tasks.so.0:_ZN14FileCopyPeerFA15SuspendInternalEv
liblftp-tasks.so.0:_ZN14FileCopyPeerFA2DoEv
liblftp-tasks.so.0:_ZN14FileCopyPeerFA3NewEP10FileAccessPKci
liblftp-tasks.so.0:_ZN14FileCopyPeerFA3NewERK13FileAccessRefPKci
liblftp-tasks.so.0:_ZN14FileCopyPeerFA4InitEv
liblftp-tasks.so.0:_ZN14FileCopyPeerFA4SeekEl
liblftp-tasks.so.0:_ZN14FileCopyPeerFA5CloneEv
liblftp-tasks.so.0:_ZN14FileCopyPeerFA6Get_LLEi
liblftp-tasks.so.0:_ZN14FileCopyPeerFA6Put_LLEPKci
liblftp-tasks.so.0:_ZN14FileCopyPeerFA7IOReadyEv
liblftp-tasks.so.0:_ZN14FileCopyPeerFA8WantSizeEv
liblftp-tasks.so.0:_ZN14FileCopyPeerFA9GetStatusEv
liblftp-tasks.so.0:_ZN14FileCopyPeerFA9PutEOF_LLEv
liblftp-tasks.so.0:_ZN14FileCopyPeerFAC1EP10FileAccessPKci
liblftp-tasks.so.0:_ZN14FileCopyPeerFAC1EPK9ParsedURLi
liblftp-tasks.so.0:_ZN14FileCopyPeerFAC1ERK13FileAccessRefPKci
liblftp-tasks.so.0:_ZN14FileCopyPeerFAC2EP10FileAccessPKci
liblftp-tasks.so.0:_ZN14FileCopyPeerFAC2EPK9ParsedURLi
liblftp-tasks.so.0:_ZN14FileCopyPeerFAC2ERK13FileAccessRefPKci
liblftp-tasks.so.0:_ZN14FileCopyPeerFAD0Ev
liblftp-tasks.so.0:_ZN14FileCopyPeerFAD1Ev
liblftp-tasks.so.0:_ZN14FileCopyPeerFAD2Ev
liblftp-tasks.so.0:_ZN14LocalDirectory10SetFromCWDEv
liblftp-tasks.so.0:_ZN14LocalDirectory5ChdirEv
liblftp-tasks.so.0:_ZN14LocalDirectory5UnsetEv
liblftp-tasks.so.0:_ZN14LocalDirectory7GetNameEv
liblftp-tasks.so.0:_ZN14LocalDirectoryC1EPKS_
liblftp-tasks.so.0:_ZN14LocalDirectoryC1Ev
liblftp-tasks.so.0:_ZN14LocalDirectoryC2EPKS_
liblftp-tasks.so.0:_ZN14LocalDirectoryC2Ev
liblftp-tasks.so.0:_ZN14LocalDirectoryD1Ev
liblftp-tasks.so.0:_ZN14LocalDirectoryD2Ev
liblftp-tasks.so.0:_ZN15FileVerificator10InitVerifyEPKc
liblftp-tasks.so.0:_ZN15FileVerificator2DoEv
liblftp-tasks.so.0:_ZN15FileVerificator5Init0Ev
liblftp-tasks.so.0:_ZN15FileVerificatorC1EPK10FileAccessPKc
liblftp-tasks.so.0:_ZN15FileVerificatorC1EPK8FDStream
liblftp-tasks.so.0:_ZN15FileVerificatorC1EPKc
liblftp-tasks.so.0:_ZN15FileVerificatorC2EPK10FileAccessPKc
liblftp-tasks.so.0:_ZN15FileVerificatorC2EPK8FDStream
liblftp-tasks.so.0:_ZN15FileVerificatorC2EPKc
liblftp-tasks.so.0:_ZN15FileVerificatorD0Ev
liblftp-tasks.so.0:_ZN15FileVerificatorD1Ev
liblftp-tasks.so.0:_ZN15FileVerificatorD2Ev
liblftp-tasks.so.0:_ZN15IOBufferStacked14ResumeInternalEv
liblftp-tasks.so.0:_ZN15IOBufferStacked15SuspendInternalEv
liblftp-tasks.so.0:_ZN15IOBufferStacked2DoEv
liblftp-tasks.so.0:_ZN15IOBufferStacked4DoneEv
liblftp-tasks.so.0:_ZN15IOBufferStacked6Get_LLEi
liblftp-tasks.so.0:_ZN15IOBufferStacked6Put_LLEPKci
liblftp-tasks.so.0:_ZN15LsCacheEntryLoc7MatchesEPK10FileAccessPKci
liblftp-tasks.so.0:_ZN15LsCacheEntryLocC1EPK10FileAccessPKci
liblftp-tasks.so.0:_ZN15LsCacheEntryLocC2EPK10FileAccessPKci
liblftp-tasks.so.0:_ZN16IOBufferFDStream4DoneEv
liblftp-tasks.so.0:_ZN16IOBufferFDStream6Get_LLEi
liblftp-tasks.so.0:_ZN16IOBufferFDStream6Put_LLEPKci
liblftp-tasks.so.0:_ZN16IOBufferFDStream9GetFgDataEb
liblftp-tasks.so.0:_ZN16IOBufferFDStreamD0Ev
liblftp-tasks.so.0:_ZN16IOBufferFDStreamD1Ev
liblftp-tasks.so.0:_ZN16IOBufferFDStreamD2Ev
liblftp-tasks.so.0:_ZN16LsCacheEntryData10GetFileSetEPK10FileAccess
liblftp-tasks.so.0:_ZN16LsCacheEntryData7GetDataEPiPPKcS0_PPK7FileSet
liblftp-tasks.so.0:_ZN16LsCacheEntryData7SetDataEiPKciPK7FileSet
liblftp-tasks.so.0:_ZN16LsCacheEntryDataC1EiPKciPK7FileSet
liblftp-tasks.so.0:_ZN16LsCacheEntryDataC2EiPKciPK7FileSet
liblftp-tasks.so.0:_ZN18FileCopyPeerMemory2DoEv
liblftp-tasks.so.0:_ZN18IOBufferFileAccess14ResumeInternalEv
liblftp-tasks.so.0:_ZN18IOBufferFileAccess15SuspendInternalEv
liblftp-tasks.so.0:_ZN18IOBufferFileAccess6Get_LLEi
liblftp-tasks.so.0:_ZN18IOBufferFileAccess6StatusEv
liblftp-tasks.so.0:_ZN19FileAccessOperation14SetErrorCachedEPKc
liblftp-tasks.so.0:_ZN19FileAccessOperation8SetErrorEPKc
liblftp-tasks.so.0:_ZN19FileCopyPeerDirList2DoEv
liblftp-tasks.so.0:_ZN19FileCopyPeerDirListC1EP10FileAccessP4ArgV
liblftp-tasks.so.0:_ZN19FileCopyPeerDirListC2EP10FileAccessP4ArgV
liblftp-tasks.so.0:_ZN20FileCopyPeerFDStream10RemoveFileEv
liblftp-tasks.so.0:_ZN20FileCopyPeerFDStream2DoEv
liblftp-tasks.so.0:_ZN20FileCopyPeerFDStream4InitEv
liblftp-tasks.so.0:_ZN20FileCopyPeerFDStream4KillEi
liblftp-tasks.so.0:_ZN20FileCopyPeerFDStream4SeekEl
liblftp-tasks.so.0:_ZN20FileCopyPeerFDStream5CloneEv
liblftp-tasks.so.0:_ZN20FileCopyPeerFDStream5getfdEv
liblftp-tasks.so.0:_ZN20FileCopyPeerFDStream6Get_LLEi
liblftp-tasks.so.0:_ZN20FileCopyPeerFDStream6NewGetEPKc
liblftp-tasks.so.0:_ZN20FileCopyPeerFDStream6NewPutEPKcb
liblftp-tasks.so.0:_ZN20FileCopyPeerFDStream6Put_LLEPKci
liblftp-tasks.so.0:_ZN20FileCopyPeerFDStream7IOReadyEv
liblftp-tasks.so.0:_ZN20FileCopyPeerFDStream7Seek_LLEv
liblftp-tasks.so.0:_ZN20FileCopyPeerFDStream8WantSizeEv
liblftp-tasks.so.0:_ZN20FileCopyPeerFDStream9GetFgDataEb
liblftp-tasks.so.0:_ZN20FileCopyPeerFDStream9GetStatusEv
liblftp-tasks.so.0:_ZN20FileCopyPeerFDStreamC1EP8FDStreamN14DirectedBuffer5dir_tE
liblftp-tasks.so.0:_ZN20FileCopyPeerFDStreamC1ERK3RefI8FDStreamEN14DirectedBuffer5dir_tE
liblftp-tasks.so.0:_ZN20FileCopyPeerFDStreamC2EP8FDStreamN14DirectedBuffer5dir_tE
liblftp-tasks.so.0:_ZN20FileCopyPeerFDStreamC2ERK3RefI8FDStreamEN14DirectedBuffer5dir_tE
liblftp-tasks.so.0:_ZN3Log10WillOutputEi
liblftp-tasks.so.0:_ZN3Log5WriteEiPKci
liblftp-tasks.so.0:_ZN3Log6FormatEiPKcz
liblftp-tasks.so.0:_ZN3Log7CleanupEv
liblftp-tasks.so.0:_ZN3Log7DoWriteEPKci
liblftp-tasks.so.0:_ZN3Log7vFormatEiPKcP13__va_list_tag
liblftp-tasks.so.0:_ZN3Log8ReconfigEPKc
liblftp-tasks.so.0:_ZN3Log9SetOutputEib
liblftp-tasks.so.0:_ZN3LogC1EPKc
liblftp-tasks.so.0:_ZN3LogC2EPKc
liblftp-tasks.so.0:_ZN3LogD0Ev
liblftp-tasks.so.0:_ZN3LogD1Ev
liblftp-tasks.so.0:_ZN3LogD2Ev
liblftp-tasks.so.0:_ZN3url10path_indexEPKc
liblftp-tasks.so.0:_ZN3url13hide_passwordEPKc
liblftp-tasks.so.0:_ZN3url15remove_passwordEPKc
liblftp-tasks.so.0:_ZN3url17find_password_posEPKcPiS2_
liblftp-tasks.so.0:_ZN3url24dir_needs_trailing_slashEPKc
liblftp-tasks.so.0:_ZN3url6decodeEPKc
liblftp-tasks.so.0:_ZN3url6encodeEPKciS1_j
liblftp-tasks.so.0:_ZN3url6is_urlEPKc
liblftp-tasks.so.0:_ZN3url8path_ptrEPKc
liblftp-tasks.so.0:_ZN4ArgV11getopt_longEPKcPK6optionPi
liblftp-tasks.so.0:_ZN4ArgV20getopt_error_messageEi
liblftp-tasks.so.0:_ZN4ArgV4backEv
liblftp-tasks.so.0:_ZN4ArgV4seekEi
liblftp-tasks.so.0:_ZN4ArgV7getnextEv
liblftp-tasks.so.0:_ZN4ArgVC1EPKcS1_
liblftp-tasks.so.0:_ZN4ArgVC2EPKcS1_
liblftp-tasks.so.0:_ZN4ArgVD1Ev
liblftp-tasks.so.0:_ZN4ArgVD2Ev
liblftp-tasks.so.0:_ZN4Glob12HasWildcardsEPKc
liblftp-tasks.so.0:_ZN4Glob16UnquoteWildcardsEPc
liblftp-tasks.so.0:_ZN4Glob3addEPK8FileInfo
liblftp-tasks.so.0:_ZN4Glob9add_forceEPK8FileInfo
liblftp-tasks.so.0:_ZN4GlobC1EP10FileAccessPKc
liblftp-tasks.so.0:_ZN4GlobC2EP10FileAccessPKc
liblftp-tasks.so.0:_ZN4GlobD0Ev
liblftp-tasks.so.0:_ZN4GlobD1Ev
liblftp-tasks.so.0:_ZN4GlobD2Ev
liblftp-tasks.so.0:_ZN4Time16SetToCurrentTimeEv
liblftp-tasks.so.0:_ZN4TimeC1Ev
liblftp-tasks.so.0:_ZN4TimeC2Ev
liblftp-tasks.so.0:_ZN5Cache11IterateNextEv
liblftp-tasks.so.0:_ZN5Cache12IterateFirstEv
liblftp-tasks.so.0:_ZN5Cache13IterateDeleteEv
liblftp-tasks.so.0:_ZN5Cache4TrimEv
liblftp-tasks.so.0:_ZN5Cache5FlushEv
liblftp-tasks.so.0:_ZN5Error3SetEiPKcb
liblftp-tasks.so.0:_ZN5Error5FatalEPKci
liblftp-tasks.so.0:_ZN5ErrorC1EiPKcb
liblftp-tasks.so.0:_ZN5ErrorC1Ev
liblftp-tasks.so.0:_ZN5ErrorC2EiPKcb
liblftp-tasks.so.0:_ZN5ErrorC2Ev
liblftp-tasks.so.0:_ZN5ErrorD1Ev
liblftp-tasks.so.0:_ZN5ErrorD2Ev
liblftp-tasks.so.0:_ZN5NetRC10LookupHostEPKcS1_
liblftp-tasks.so.0:_ZN5Range6RandomEv
liblftp-tasks.so.0:_ZN5RangeC1EPKc
liblftp-tasks.so.0:_ZN5RangeC2EPKc
liblftp-tasks.so.0:_ZN5Timer10add_randomEv
liblftp-tasks.so.0:_ZN5Timer11ReconfigAllEPKc
liblftp-tasks.so.0:_ZN5Timer11SetResourceEPKcS1_
liblftp-tasks.so.0:_ZN5Timer11StopDelayedEi
liblftp-tasks.so.0:_ZN5Timer12GetTimeoutTVEv
liblftp-tasks.so.0:_ZN5Timer12ResetDelayedEi
liblftp-tasks.so.0:_ZN5Timer16set_last_settingERK12TimeInterval
liblftp-tasks.so.0:_ZN5Timer3SetERK12TimeInterval
liblftp-tasks.so.0:_ZN5Timer4initEv
liblftp-tasks.so.0:_ZN5Timer5ResetERK4Time
liblftp-tasks.so.0:_ZN5Timer6re_setEv
liblftp-tasks.so.0:_ZN5Timer7re_sortEv
liblftp-tasks.so.0:_ZN5Timer8reconfigEPKc
liblftp-tasks.so.0:_ZN5Timer9AddRandomEd
liblftp-tasks.so.0:_ZN5TimerC1EPKcS1_
liblftp-tasks.so.0:_ZN5TimerC1ERK12TimeInterval
liblftp-tasks.so.0:_ZN5TimerC1Eii
liblftp-tasks.so.0:_ZN5TimerC1Ev
liblftp-tasks.so.0:_ZN5TimerC2EPKcS1_
liblftp-tasks.so.0:_ZN5TimerC2ERK12TimeInterval
liblftp-tasks.so.0:_ZN5TimerC2Eii
liblftp-tasks.so.0:_ZN5TimerC2Ev
liblftp-tasks.so.0:_ZN5TimerD1Ev
liblftp-tasks.so.0:_ZN5TimerD2Ev
liblftp-tasks.so.0:_ZN5_xmap10_each_nextEv
liblftp-tasks.so.0:_ZN5_xmap10_move_hereERS_
liblftp-tasks.so.0:_ZN5_xmap11_each_beginEv
liblftp-tasks.so.0:_ZN5_xmap11rebuild_mapEv
liblftp-tasks.so.0:_ZN5_xmap4_addERK7xstring
liblftp-tasks.so.0:_ZN5_xmap6_emptyEv
liblftp-tasks.so.0:_ZN5_xmap7_lookupERK7xstring
liblftp-tasks.so.0:_ZN5_xmap7_removeEPPNS_5entryE
liblftp-tasks.so.0:_ZN5_xmap7new_mapEv
liblftp-tasks.so.0:_ZN5_xmapC1Ei
liblftp-tasks.so.0:_ZN5_xmapC2Ei
liblftp-tasks.so.0:_ZN5_xmapD1Ev
liblftp-tasks.so.0:_ZN5_xmapD2Ev
liblftp-tasks.so.0:_ZN6Buffer11GetRateStrSEv
liblftp-tasks.so.0:_ZN6Buffer11PackINT32BEEi
liblftp-tasks.so.0:_ZN6Buffer11PackINT64BEEx
liblftp-tasks.so.0:_ZN6Buffer12MoveDataHereEPS_i
liblftp-tasks.so.0:_ZN6Buffer12PackUINT16BEEj
liblftp-tasks.so.0:_ZN6Buffer12PackUINT32BEEj
liblftp-tasks.so.0:_ZN6Buffer12PackUINT64BEEy
liblftp-tasks.so.0:_ZN6Buffer12SaveMaxCheckEi
liblftp-tasks.so.0:_ZN6Buffer12SaveRollbackEl
liblftp-tasks.so.0:_ZN6Buffer14SetErrorCachedEPKc
liblftp-tasks.so.0:_ZN6Buffer3PutEPKci
liblftp-tasks.so.0:_ZN6Buffer4SkipEi
liblftp-tasks.so.0:_ZN6Buffer5EmptyEv
liblftp-tasks.so.0:_ZN6Buffer6AppendEPKci
liblftp-tasks.so.0:_ZN6Buffer6FormatEPKcz
liblftp-tasks.so.0:_ZN6Buffer6UnSkipEi
liblftp-tasks.so.0:_ZN6Buffer7PrependEPKci
liblftp-tasks.so.0:_ZN6Buffer7RateAddEi
liblftp-tasks.so.0:_ZN6Buffer7vFormatEPKcP13__va_list_tag
liblftp-tasks.so.0:_ZN6Buffer8AllocateEi
liblftp-tasks.so.0:_ZN6Buffer8SetErrorEPKcb
liblftp-tasks.so.0:_ZN6Buffer9PackUINT8Ej
liblftp-tasks.so.0:_ZN6BufferC1Ev
liblftp-tasks.so.0:_ZN6BufferC2Ev
liblftp-tasks.so.0:_ZN6BufferD1Ev
liblftp-tasks.so.0:_ZN6BufferD2Ev
liblftp-tasks.so.0:_ZN6FgData2BgEv
liblftp-tasks.so.0:_ZN6FgData2FgEv
liblftp-tasks.so.0:_ZN6FgData4contEv
liblftp-tasks.so.0:_ZN6FgDataC1Eib
liblftp-tasks.so.0:_ZN6FgDataC2Eib
liblftp-tasks.so.0:_ZN6FgDataD1Ev
liblftp-tasks.so.0:_ZN6FgDataD2Ev
liblftp-tasks.so.0:_ZN6NoGlob2DoEv
liblftp-tasks.so.0:_ZN6NoGlobC1EPKc
liblftp-tasks.so.0:_ZN6NoGlobC2EPKc
liblftp-tasks.so.0:_ZN6ResMgr10HasClosureEP9xstring_c
liblftp-tasks.so.0:_ZN6ResMgr11DirReadableEP9xstring_c
liblftp-tasks.so.0:_ZN6ResMgr12BoolValidateEP9xstring_c
liblftp-tasks.so.0:_ZN6ResMgr12FileReadableEP9xstring_c
liblftp-tasks.so.0:_ZN6ResMgr12QueryTriBoolEPKcS1_b
liblftp-tasks.so.0:_ZN6ResMgr13AliasValidateEP9xstring_c
liblftp-tasks.so.0:_ZN6ResMgr13FileCreatableEP9xstring_c
liblftp-tasks.so.0:_ZN6ResMgr13FloatValidateEP9xstring_c
liblftp-tasks.so.0:_ZN6ResMgr13RangeValidateEP9xstring_c
liblftp-tasks.so.0:_ZN6ResMgr14FileAccessibleEP9xstring_cib
liblftp-tasks.so.0:_ZN6ResMgr14FileExecutableEP9xstring_c
liblftp-tasks.so.0:_ZN6ResMgr14NumberValidateEP9xstring_c
liblftp-tasks.so.0:_ZN6ResMgr15CharsetValidateEP9xstring_c
liblftp-tasks.so.0:_ZN6ResMgr15ERegExpValidateEP9xstring_c
liblftp-tasks.so.0:_ZN6ResMgr15ResourceCompareEPK8ResourceS2_
liblftp-tasks.so.0:_ZN6ResMgr15TriBoolValidateEP9xstring_c
liblftp-tasks.so.0:_ZN6ResMgr15UNumberValidateEP9xstring_c
liblftp-tasks.so.0:_ZN6ResMgr16IPv4AddrValidateEP9xstring_c
liblftp-tasks.so.0:_ZN6ResMgr16IPv6AddrValidateEP9xstring_c
liblftp-tasks.so.0:_ZN6ResMgr19UNumberPairValidateEP9xstring_c
liblftp-tasks.so.0:_ZN6ResMgr20TimeIntervalValidateEP9xstring_c
liblftp-tasks.so.0:_ZN6ResMgr5QueryEPKcS1_
liblftp-tasks.so.0:_ZN6ResMgr8str2boolEPKc
liblftp-tasks.so.0:_ZN6ResMgr9NoClosureEP9xstring_c
liblftp-tasks.so.0:_ZN6ResMgr9QueryBoolEPKcS1_
liblftp-tasks.so.0:_ZN6ResMgr9QueryNextEPKcPS1_PP8Resource
liblftp-tasks.so.0:_ZN6SMTask10PrintTasksEv
liblftp-tasks.so.0:_ZN6SMTask11DeleteLaterEv
liblftp-tasks.so.0:_ZN6SMTask11ResumeSlaveEv
liblftp-tasks.so.0:_ZN6SMTask11ScheduleNewEv
liblftp-tasks.so.0:_ZN6SMTask12ScheduleThisEv
liblftp-tasks.so.0:_ZN6SMTask12SuspendSlaveEv
liblftp-tasks.so.0:_ZN6SMTask13NonFatalErrorEi
liblftp-tasks.so.0:_ZN6SMTask14CollectGarbageEv
liblftp-tasks.so.0:_ZN6SMTask14ResumeInternalEv
liblftp-tasks.so.0:_ZN6SMTask4RollEPS_
liblftp-tasks.so.0:_ZN6SMTask5BlockEv
liblftp-tasks.so.0:_ZN6SMTask5EnterEPS_
liblftp-tasks.so.0:_ZN6SMTask5LeaveEPS_
liblftp-tasks.so.0:_ZN6SMTask6DeleteEPS_
liblftp-tasks.so.0:_ZN6SMTask6ResumeEv
liblftp-tasks.so.0:_ZN6SMTask7CleanupEv
liblftp-tasks.so.0:_ZN6SMTask7RollAllERK12TimeInterval
liblftp-tasks.so.0:_ZN6SMTask7SuspendEv
liblftp-tasks.so.0:_ZN6SMTask7_SetRefEPS_S0_
liblftp-tasks.so.0:_ZN6SMTask8ScheduleEv
liblftp-tasks.so.0:_ZN6SMTask9TaskCountEv
liblftp-tasks.so.0:_ZN6SMTaskC1Ev
liblftp-tasks.so.0:_ZN6SMTaskC2Ev
liblftp-tasks.so.0:_ZN6SMTaskD0Ev
liblftp-tasks.so.0:_ZN6SMTaskD1Ev
liblftp-tasks.so.0:_ZN6SMTaskD2Ev
liblftp-tasks.so.0:_ZN7DirListC1EP10FileAccessP4ArgV
liblftp-tasks.so.0:_ZN7DirListC2EP10FileAccessP4ArgV
liblftp-tasks.so.0:_ZN7DirListD0Ev
liblftp-tasks.so.0:_ZN7DirListD1Ev
liblftp-tasks.so.0:_ZN7DirListD2Ev
liblftp-tasks.so.0:_ZN7FileSet10LocalChmodEPKcjb
liblftp-tasks.so.0:_ZN7FileSet10LocalChownEPKcb
liblftp-tasks.so.0:_ZN7FileSet10LocalUtimeEPKcbb
liblftp-tasks.so.0:_ZN7FileSet10UnsortFlatEv
liblftp-tasks.so.0:_ZN7FileSet10add_beforeEiP8FileInfo
liblftp-tasks.so.0:_ZN7FileSet11ExcludeDotsEv
liblftp-tasks.so.0:_ZN7FileSet11PrependPathEPKc
liblftp-tasks.so.0:_ZN7FileSet11ReverseSortEv
liblftp-tasks.so.0:_ZN7FileSet11SubtractAnyEPKS_
liblftp-tasks.so.0:_ZN7FileSet12Merge_insertEPKS_
liblftp-tasks.so.0:_ZN7FileSet12SubtractCurrEv
liblftp-tasks.so.0:_ZN7FileSet12SubtractDirsEPKS_
liblftp-tasks.so.0:_ZN7FileSet12SubtractDirsEv
liblftp-tasks.so.0:_ZN7FileSet12SubtractSameEPKS_i
liblftp-tasks.so.0:_ZN7FileSet13SubtractNotInEPKS_
liblftp-tasks.so.0:_ZN7FileSet14SubtractByNameEPKc
liblftp-tasks.so.0:_ZN7FileSet15ExcludeCompoundEv
liblftp-tasks.so.0:_ZN7FileSet15SubtractNotDirsEv
liblftp-tasks.so.0:_ZN7FileSet15SubtractTimeCmpEM8FileInfoKFblEl
liblftp-tasks.so.0:_ZN7FileSet16SubtractSameTypeEPKS_
liblftp-tasks.so.0:_ZN7FileSet17SortByPatternListEPKc
liblftp-tasks.so.0:_ZN7FileSet19ExcludeUnaccessibleEPKc
liblftp-tasks.so.0:_ZN7FileSet19SubtractSizeOutsideEPK5Range
liblftp-tasks.so.0:_ZN7FileSet20SubtractNotOlderDirsEPKS_
liblftp-tasks.so.0:_ZN7FileSet3AddEP8FileInfo
liblftp-tasks.so.0:_ZN7FileSet3SubEi
liblftp-tasks.so.0:_ZN7FileSet4SortENS_6sort_eEbb
liblftp-tasks.so.0:_ZN7FileSet4currEv
liblftp-tasks.so.0:_ZN7FileSet4nextEv
liblftp-tasks.so.0:_ZN7FileSet5EmptyEv
liblftp-tasks.so.0:_ZN7FileSet5MergeEPKS_
liblftp-tasks.so.0:_ZN7FileSet6BorrowEi
liblftp-tasks.so.0:_ZN7FileSet6UnsortEv
liblftp-tasks.so.0:_ZN7FileSet7ExcludeEPKcPK10PatternSetPS_
liblftp-tasks.so.0:_ZN7FileSetC1EPKS_
liblftp-tasks.so.0:_ZN7FileSetC1Ev
liblftp-tasks.so.0:_ZN7FileSetC2EPKS_
liblftp-tasks.so.0:_ZN7FileSetC2Ev
liblftp-tasks.so.0:_ZN7FileSetD1Ev
liblftp-tasks.so.0:_ZN7FileSetD2Ev
liblftp-tasks.so.0:_ZN7GlobURL7NewGlobEPKc
liblftp-tasks.so.0:_ZN7GlobURL9GetResultEv
liblftp-tasks.so.0:_ZN7GlobURLC1ERK13FileAccessRefPKcNS_11type_selectE
liblftp-tasks.so.0:_ZN7GlobURLC2ERK13FileAccessRefPKcNS_11type_selectE
liblftp-tasks.so.0:_ZN7GlobURLD1Ev
liblftp-tasks.so.0:_ZN7GlobURLD2Ev
liblftp-tasks.so.0:_ZN7LsCache11FindFileSetEPK10FileAccessPKci
liblftp-tasks.so.0:_ZN7LsCache11IsDirectoryEPK10FileAccessPKc
liblftp-tasks.so.0:_ZN7LsCache12SetDirectoryEPK10FileAccessPKcb
liblftp-tasks.so.0:_ZN7LsCache13UpdateFileSetEPK10FileAccessPKciPK7FileSet
liblftp-tasks.so.0:_ZN7LsCache3AddEPK10FileAccessPKciiPK6BufferPK7FileSet
liblftp-tasks.so.0:_ZN7LsCache3AddEPK10FileAccessPKciiS4_iPK7FileSet
liblftp-tasks.so.0:_ZN7LsCache4FindEPK10FileAccessPKci
liblftp-tasks.so.0:_ZN7LsCache4FindEPK10FileAccessPKciPiPS4_S5_PPK7FileSet
liblftp-tasks.so.0:_ZN7LsCache4ListEv
liblftp-tasks.so.0:_ZN7LsCache7ChangedENS_11change_modeEPK10FileAccessPKc
liblftp-tasks.so.0:_ZN7LsCacheC1Ev
liblftp-tasks.so.0:_ZN7LsCacheC2Ev
liblftp-tasks.so.0:_ZN7PollVec11AddTimeoutUEj
liblftp-tasks.so.0:_ZN7PollVec13FDSetNotReadyEii
liblftp-tasks.so.0:_ZN7PollVec5AddFDEii
liblftp-tasks.so.0:_ZN7PollVec5BlockEv
liblftp-tasks.so.0:_ZN7PollVec7FDReadyEii
liblftp-tasks.so.0:_ZN7ResDeclC1EPKcS1_PFS1_P9xstring_cES5_
liblftp-tasks.so.0:_ZN7ResDeclC2EPKcS1_PFS1_P9xstring_cES5_
liblftp-tasks.so.0:_ZN7ResType10UnregisterEv
liblftp-tasks.so.0:_ZN7ResType10VarNameCmpEPKcS1_
liblftp-tasks.so.0:_ZN7ResType12ClassCleanupEv
liblftp-tasks.so.0:_ZN7ResType3SetEPKcS1_S1_b
liblftp-tasks.so.0:_ZN7ResType3SetEPKcS1_b
liblftp-tasks.so.0:_ZN7ResType6FormatEbb
liblftp-tasks.so.0:_ZN7ResType7FindResEPKc
liblftp-tasks.so.0:_ZN7ResType7FindVarEPKcPPKS_PS1_
liblftp-tasks.so.0:_ZN7ResType8RegisterEv
liblftp-tasks.so.0:_ZN7ResType9ClassInitEv
liblftp-tasks.so.0:_ZN7ResType9GeneratorEv
liblftp-tasks.so.0:_ZN7xarray012get_space_doEmm
liblftp-tasks.so.0:_ZN7xarray015_insert_orderedEPKvPFiS1_S1_E
liblftp-tasks.so.0:_ZN7xarray05_nsetEPKvi
liblftp-tasks.so.0:_ZN7xarray07_borrowEv
liblftp-tasks.so.0:_ZN7xarray07_insertEi
liblftp-tasks.so.0:_ZN7xarray07_removeEii
liblftp-tasks.so.0:_ZN7xarray08_bsearchEPKvPFiS1_S1_EPi
liblftp-tasks.so.0:_ZN7xarray09move_hereERS_
liblftp-tasks.so.0:_ZN7xstring10get_space2Emm
liblftp-tasks.so.0:_ZN7xstring10hex_decodeEv
liblftp-tasks.so.0:_ZN7xstring10set_substrEimPKc
liblftp-tasks.so.0:_ZN7xstring10set_substrEimPKcm
liblftp-tasks.so.0:_ZN7xstring10url_decodeEi
liblftp-tasks.so.0:_ZN7xstring11truncate_atEc
liblftp-tasks.so.0:_ZN7xstring12shrink_spaceEv
liblftp-tasks.so.0:_ZN7xstring13set_allocatedEPc
liblftp-tasks.so.0:_ZN7xstring14append_paddingEic
liblftp-tasks.so.0:_ZN7xstring18append_url_encodedEPKciS1_j
liblftp-tasks.so.0:_ZN7xstring3catEPKcz
liblftp-tasks.so.0:_ZN7xstring3setEPKc
liblftp-tasks.so.0:_ZN7xstring4c_lcEv
liblftp-tasks.so.0:_ZN7xstring4initEPKc
liblftp-tasks.so.0:_ZN7xstring4initEPKci
liblftp-tasks.so.0:_ZN7xstring4joinEPKciz
liblftp-tasks.so.0:_ZN7xstring4nsetEPKci
liblftp-tasks.so.0:_ZN7xstring4setfEPKcz
liblftp-tasks.so.0:_ZN7xstring4swapERS_
liblftp-tasks.so.0:_ZN7xstring4vsetEz
liblftp-tasks.so.0:_ZN7xstring5chompEc
liblftp-tasks.so.0:_ZN7xstring5rtrimEc
liblftp-tasks.so.0:_ZN7xstring6appendEPKc
liblftp-tasks.so.0:_ZN7xstring6appendEPKcm
liblftp-tasks.so.0:_ZN7xstring6appendEc
liblftp-tasks.so.0:_ZN7xstring6formatEPKcz
liblftp-tasks.so.0:_ZN7xstring7appendfEPKcz
liblftp-tasks.so.0:_ZN7xstring7get_tmpEv
liblftp-tasks.so.0:_ZN7xstring7tmp_bufEi
liblftp-tasks.so.0:_ZN7xstring7vappendEP13__va_list_tag
liblftp-tasks.so.0:_ZN7xstring7vappendEz
liblftp-tasks.so.0:_ZN7xstring8truncateEm
liblftp-tasks.so.0:_ZN7xstring8vappendfEPKcP13__va_list_tag
liblftp-tasks.so.0:_ZN7xstring9add_spaceEm
liblftp-tasks.so.0:_ZN7xstring9c_ucfirstEv
liblftp-tasks.so.0:_ZN7xstring9get_spaceEm
liblftp-tasks.so.0:_ZN7xstring9move_hereERS_
liblftp-tasks.so.0:_ZN7xstringC1ERK16xstring_clonable
liblftp-tasks.so.0:_ZN7xstringC2ERK16xstring_clonable
liblftp-tasks.so.0:_ZN8Bookmark10PostModifyEv
liblftp-tasks.so.0:_ZN8Bookmark19FormatHidePasswordsEv
liblftp-tasks.so.0:_ZN8Bookmark3AddEPKcS1_
liblftp-tasks.so.0:_ZN8Bookmark4LoadEv
liblftp-tasks.so.0:_ZN8Bookmark5CloseEv
liblftp-tasks.so.0:_ZN8Bookmark6FormatEv
liblftp-tasks.so.0:_ZN8Bookmark6LookupEPKc
liblftp-tasks.so.0:_ZN8Bookmark6RemoveEPKc
liblftp-tasks.so.0:_ZN8Bookmark7RefreshEv
liblftp-tasks.so.0:_ZN8Bookmark8AutoSyncEv
liblftp-tasks.so.0:_ZN8Bookmark8UserSaveEv
liblftp-tasks.so.0:_ZN8Bookmark9PreModifyEv
liblftp-tasks.so.0:_ZN8BookmarkC1Ev
liblftp-tasks.so.0:_ZN8BookmarkC2Ev
liblftp-tasks.so.0:_ZN8BookmarkD0Ev
liblftp-tasks.so.0:_ZN8BookmarkD1Ev
liblftp-tasks.so.0:_ZN8BookmarkD2Ev
liblftp-tasks.so.0:_ZN8FDStream13MakeErrorTextEi
liblftp-tasks.so.0:_ZN8FDStream13NonFatalErrorEi
liblftp-tasks.so.0:_ZN8FDStream4DoneEv
liblftp-tasks.so.0:_ZN8FDStream5SetFDEib
liblftp-tasks.so.0:_ZN8FDStream6SetCwdEPKc
liblftp-tasks.so.0:_ZN8FDStream9DoCloseFDEv
liblftp-tasks.so.0:_ZN8FDStreamC1EiPKc
liblftp-tasks.so.0:_ZN8FDStreamC1Ev
liblftp-tasks.so.0:_ZN8FDStreamC2EiPKc
liblftp-tasks.so.0:_ZN8FDStreamC2Ev
liblftp-tasks.so.0:_ZN8FDStreamD0Ev
liblftp-tasks.so.0:_ZN8FDStreamD1Ev
liblftp-tasks.so.0:_ZN8FDStreamD2Ev
liblftp-tasks.so.0:_ZN8FileCopy10GetRateStrEv
liblftp-tasks.so.0:_ZN8FileCopy11LogTransferEv
liblftp-tasks.so.0:_ZN8FileCopy12GetProcGroupEv
liblftp-tasks.so.0:_ZN8FileCopy12GetTimeSpentEv
liblftp-tasks.so.0:_ZN8FileCopy12LineBufferedEi
liblftp-tasks.so.0:_ZN8FileCopy12TempFileNameEPKc
liblftp-tasks.so.0:_ZN8FileCopy14ResumeInternalEv
liblftp-tasks.so.0:_ZN8FileCopy15SuspendInternalEv
liblftp-tasks.so.0:_ZN8FileCopy17GetBytesRemainingEv
liblftp-tasks.so.0:_ZN8FileCopy2BgEv
liblftp-tasks.so.0:_ZN8FileCopy2DoEv
liblftp-tasks.so.0:_ZN8FileCopy2FgEv
liblftp-tasks.so.0:_ZN8FileCopy3NewEP12FileCopyPeerS1_b
liblftp-tasks.so.0:_ZN8FileCopy4KillEi
liblftp-tasks.so.0:_ZN8FileCopy6GetETAEl
liblftp-tasks.so.0:_ZN8FileCopy7GetRateEv
liblftp-tasks.so.0:_ZN8FileCopy7RateAddEi
liblftp-tasks.so.0:_ZN8FileCopy8SetErrorEPKc
liblftp-tasks.so.0:_ZN8FileCopy8SetRangeEll
liblftp-tasks.so.0:_ZN8FileCopy9GetETAStrEv
liblftp-tasks.so.0:_ZN8FileCopy9GetFgDataEb
liblftp-tasks.so.0:_ZN8FileCopy9GetStatusEv
liblftp-tasks.so.0:_ZN8FileCopy9RateResetEv
liblftp-tasks.so.0:_ZN8FileCopyC1EP12FileCopyPeerS1_b
liblftp-tasks.so.0:_ZN8FileCopyC2EP12FileCopyPeerS1_b
liblftp-tasks.so.0:_ZN8FileCopyD0Ev
liblftp-tasks.so.0:_ZN8FileCopyD1Ev
liblftp-tasks.so.0:_ZN8FileCopyD2Ev
liblftp-tasks.so.0:_ZN8FileInfo12MakeLongNameEv
liblftp-tasks.so.0:_ZN8FileInfo13parse_ls_lineEPKciS1_
liblftp-tasks.so.0:_ZN8FileInfo4InitEv
liblftp-tasks.so.0:_ZN8FileInfo5MergeERKS_
liblftp-tasks.so.0:_ZN8FileInfo7SetUserEPKc
liblftp-tasks.so.0:_ZN8FileInfo8SetGroupEPKc
liblftp-tasks.so.0:_ZN8FileInfo9LocalFileEPKcb
liblftp-tasks.so.0:_ZN8FileInfo9MergeInfoERKS_j
liblftp-tasks.so.0:_ZN8FileInfoC1ERKS_
liblftp-tasks.so.0:_ZN8FileInfoC2ERKS_
liblftp-tasks.so.0:_ZN8FileInfoD1Ev
liblftp-tasks.so.0:_ZN8FileInfoD2Ev
liblftp-tasks.so.0:_ZN8IOBuffer11TuneGetSizeEi
liblftp-tasks.so.0:_ZN8IOBuffer2DoEv
liblftp-tasks.so.0:_ZN8IOBuffer3PutEPKc
liblftp-tasks.so.0:_ZN8IOBuffer3PutEPKci
liblftp-tasks.so.0:_ZN8IOBufferC1EN14DirectedBuffer5dir_tE
liblftp-tasks.so.0:_ZN8IOBufferC2EN14DirectedBuffer5dir_tE
liblftp-tasks.so.0:_ZN8IOBufferD0Ev
liblftp-tasks.so.0:_ZN8IOBufferD1Ev
liblftp-tasks.so.0:_ZN8IOBufferD2Ev
liblftp-tasks.so.0:_ZN8ListInfo12PrepareToDieEv
liblftp-tasks.so.0:_ZN8ListInfoC1EP10FileAccessPKc
liblftp-tasks.so.0:_ZN8ListInfoC2EP10FileAccessPKc
liblftp-tasks.so.0:_ZN8ListInfoD0Ev
liblftp-tasks.so.0:_ZN8ListInfoD1Ev
liblftp-tasks.so.0:_ZN8ListInfoD2Ev
liblftp-tasks.so.0:_ZN8ProcWait11handle_infoEi
liblftp-tasks.so.0:_ZN8ProcWait2DoEv
liblftp-tasks.so.0:_ZN8ProcWait4KillEi
liblftp-tasks.so.0:_ZN8ProcWait6SignalEb
liblftp-tasks.so.0:_ZN8ProcWait8proc_keyEi
liblftp-tasks.so.0:_ZN8ProcWait9DeleteAllEv
liblftp-tasks.so.0:_ZN8ProcWaitC1Ei
liblftp-tasks.so.0:_ZN8ProcWaitC2Ei
liblftp-tasks.so.0:_ZN8ProcWaitD0Ev
liblftp-tasks.so.0:_ZN8ProcWaitD1Ev
liblftp-tasks.so.0:_ZN8ProcWaitD2Ev
liblftp-tasks.so.0:_ZN8ProtoLog10WillOutputEi
liblftp-tasks.so.0:_ZN8ProtoLog4Log2EiR7xstring
liblftp-tasks.so.0:_ZN8ProtoLog4Log3EiPKcS1_
liblftp-tasks.so.0:_ZN8ProtoLog5LogVFEiPKcS1_P13__va_list_tag
liblftp-tasks.so.0:_ZN8ProtoLog7LogNoteEiPKcz
liblftp-tasks.so.0:_ZN8ProtoLog7LogRecvEiPKc
liblftp-tasks.so.0:_ZN8ProtoLog7LogSendEiPKc
liblftp-tasks.so.0:_ZN8ProtoLog8LogErrorEiPKcz
liblftp-tasks.so.0:_ZN8ProtoLog8LogRecvFEiPKcz
liblftp-tasks.so.0:_ZN8ProtoLog8LogSendFEiPKcz
liblftp-tasks.so.0:_ZN8ProtoLog9init_tagsEv
liblftp-tasks.so.0:_ZN8ResDeclsC1EP7ResType
liblftp-tasks.so.0:_ZN8ResDeclsC1EP7ResTypeS1_z
liblftp-tasks.so.0:_ZN8ResDeclsC2EP7ResType
liblftp-tasks.so.0:_ZN8ResDeclsC2EP7ResTypeS1_z
liblftp-tasks.so.0:_ZN8ResDeclsD1Ev
liblftp-tasks.so.0:_ZN8ResDeclsD2Ev
liblftp-tasks.so.0:_ZN8Resource12ClosureMatchEPKc
liblftp-tasks.so.0:_ZN8ResourceC1EP7ResTypePKcS3_b
liblftp-tasks.so.0:_ZN8ResourceC2EP7ResTypePKcS3_b
liblftp-tasks.so.0:_ZN8ResourceD1Ev
liblftp-tasks.so.0:_ZN8ResourceD2Ev
liblftp-tasks.so.0:_ZN8TimeDate11IsoDateTimeEv
liblftp-tasks.so.0:_ZN8TimeDate14set_local_timeEv
liblftp-tasks.so.0:_ZN8TimeDiff3SetEd
liblftp-tasks.so.0:_ZN8TimeDiff7valueOfEd
liblftp-tasks.so.0:_ZN8xstring011_hex_decodeEm
liblftp-tasks.so.0:_ZN8xstring011_url_decodeEmi
liblftp-tasks.so.0:_ZN9DirColors10PutColoredERK3RefI6BufferEPKci
liblftp-tasks.so.0:_ZN9DirColors5ParseEPKc
liblftp-tasks.so.0:_ZN9DirColors8GetColorEPK8FileInfo
liblftp-tasks.so.0:_ZN9DirColors8GetColorEPKci
liblftp-tasks.so.0:_ZN9DirColors8PutResetERK3RefI6BufferE
liblftp-tasks.so.0:_ZN9DirColors8ReconfigEPKc
liblftp-tasks.so.0:_ZN9DirColorsC1Ev
liblftp-tasks.so.0:_ZN9DirColorsC2Ev
liblftp-tasks.so.0:_ZN9ParsedURL5parseEPKcbb
liblftp-tasks.so.0:_ZN9ParsedURL7CombineEPKcb
liblftp-tasks.so.0:_ZN9ParsedURLC1EPKcbb
liblftp-tasks.so.0:_ZN9ParsedURLC2EPKcbb
liblftp-tasks.so.0:_ZN9ParsedURLD1Ev
liblftp-tasks.so.0:_ZN9ParsedURLD2Ev
liblftp-tasks.so.0:_ZN9ResClient11ReconfigAllEPKc
liblftp-tasks.so.0:_ZN9ResClientC1Ev
liblftp-tasks.so.0:_ZN9ResClientC2Ev
liblftp-tasks.so.0:_ZN9ResClientD0Ev
liblftp-tasks.so.0:_ZN9ResClientD1Ev
liblftp-tasks.so.0:_ZN9ResClientD2Ev
liblftp-tasks.so.0:_ZN9StringSet11default_cmpEPPKcS2_
liblftp-tasks.so.0:_ZN9StringSet12AppendFormatEPKcz
liblftp-tasks.so.0:_ZN9StringSet12InsertBeforeEiPKc
liblftp-tasks.so.0:_ZN9StringSet3PopEi
liblftp-tasks.so.0:_ZN9StringSet6AppendEPKc
liblftp-tasks.so.0:_ZN9StringSet6AssignEPKPKci
liblftp-tasks.so.0:_ZN9StringSet7ReplaceEiPKc
liblftp-tasks.so.0:_ZN9StringSet8MoveHereERS_
liblftp-tasks.so.0:_ZN9StringSetC1EPKPKci
liblftp-tasks.so.0:_ZN9StringSetC1EPKc
liblftp-tasks.so.0:_ZN9StringSetC1ERKS_
liblftp-tasks.so.0:_ZN9StringSetC1Ev
liblftp-tasks.so.0:_ZN9StringSetC2EPKPKci
liblftp-tasks.so.0:_ZN9StringSetC2EPKc
liblftp-tasks.so.0:_ZN9StringSetC2ERKS_
liblftp-tasks.so.0:_ZN9StringSetC2Ev
liblftp-tasks.so.0:_ZN9xstring_c10url_decodeEi
liblftp-tasks.so.0:_ZN9xstring_c4vsetEz
liblftp-tasks.so.0:_ZNK10DummyProto5CloneEv
liblftp-tasks.so.0:_ZNK10DummyProto8GetProtoEv
liblftp-tasks.so.0:_ZNK10FileAccess10GetFileURLEPKci
liblftp-tasks.so.0:_ZNK10FileAccess10SameSiteAsEPKS_
liblftp-tasks.so.0:_ZNK10FileAccess11IsConnectedEv
liblftp-tasks.so.0:_ZNK10FileAccess12IsBetterThanEPKS_
liblftp-tasks.so.0:_ZNK10FileAccess12MkdirMakeSetEv
liblftp-tasks.so.0:_ZNK10FileAccess12NextSameSiteEPS_
liblftp-tasks.so.0:_ZNK10FileAccess13GetConnectURLEi
liblftp-tasks.so.0:_ZNK10FileAccess14SameLocationAsEPKS_
liblftp-tasks.so.0:_ZNK10FileAccess16GetNewLocationFAEv
liblftp-tasks.so.0:_ZNK10FileAccess17ExpandTildeStaticEPKc
liblftp-tasks.so.0:_ZNK10FileAccess17device_prefix_lenEPKc
liblftp-tasks.so.0:_ZNK10FileAccess4PatheqERKS0_
liblftp-tasks.so.0:_ZNK10KeyValueDB10LookupPairEPKc
liblftp-tasks.so.0:_ZNK10KeyValueDB6LookupEPKc
liblftp-tasks.so.0:_ZNK10PatternSet12GetFirstTypeEv
liblftp-tasks.so.0:_ZNK10PatternSet5MatchENS_4TypeEPKc
liblftp-tasks.so.0:_ZNK10StatusLine10WriteTitleEPKci
liblftp-tasks.so.0:_ZNK10time_tuple9to_doubleEv
liblftp-tasks.so.0:_ZNK12DummyNoProto5CloneEv
liblftp-tasks.so.0:_ZNK12DummyNoProto8GetProtoEv
liblftp-tasks.so.0:_ZNK12FileCopyPeer12ShouldRenameEv
liblftp-tasks.so.0:_ZNK12LsCacheEntry12EstimateSizeEv
liblftp-tasks.so.0:_ZNK12TimeInterval11GetTimeoutUERK4Time
liblftp-tasks.so.0:_ZNK12TimeInterval8FinishedERK4Time
liblftp-tasks.so.0:_ZNK14LocalDirectory5CloneEv
liblftp-tasks.so.0:_ZNK15LsCacheEntryLoc10GetClosureEv
liblftp-tasks.so.0:_ZNK4ArgV20CombineShellQuotedToER7xstringi
liblftp-tasks.so.0:_ZNK4ArgV9CombineToER7xstringii
liblftp-tasks.so.0:_ZNK4Time6PassedEi
liblftp-tasks.so.0:_ZNK5Timer7StoppedEv
liblftp-tasks.so.0:_ZNK5Timer8TimeLeftEv
liblftp-tasks.so.0:_ZNK5_xmap9_lookup_cERK7xstring
liblftp-tasks.so.0:_ZNK5_xmap9make_hashERK7xstring
liblftp-tasks.so.0:_ZNK6Buffer11UnpackUINT8Ei
liblftp-tasks.so.0:_ZNK6Buffer13UnpackINT32BEEi
liblftp-tasks.so.0:_ZNK6Buffer13UnpackINT64BEEi
liblftp-tasks.so.0:_ZNK6Buffer14UnpackUINT16BEEi
liblftp-tasks.so.0:_ZNK6Buffer14UnpackUINT32BEEi
liblftp-tasks.so.0:_ZNK6Buffer14UnpackUINT64BEEi
liblftp-tasks.so.0:_ZNK6Buffer3GetEPPKcPi
liblftp-tasks.so.0:_ZNK6Buffer3GetEv
liblftp-tasks.so.0:_ZNK6Buffer4DumpEv
liblftp-tasks.so.0:_ZNK6Buffer8GetSavedEPPKcPi
liblftp-tasks.so.0:_ZNK7FileSet10CountBytesEPx
liblftp-tasks.so.0:_ZNK7FileSet10FindByNameEPKc
liblftp-tasks.so.0:_ZNK7FileSet13assert_sortedEv
liblftp-tasks.so.0:_ZNK7FileSet14EstimateMemoryEv
liblftp-tasks.so.0:_ZNK7FileSet15FindGEIndByNameEPKc
liblftp-tasks.so.0:_ZNK7FileSet4HaveEv
liblftp-tasks.so.0:_ZNK7FileSet5CountEPiS0_S0_S0_
liblftp-tasks.so.0:_ZNK7FileSetixEi
liblftp-tasks.so.0:_ZNK7ResType11SimpleQueryEPKc
liblftp-tasks.so.0:_ZNK7ResType12QueryTriBoolEPKcb
liblftp-tasks.so.0:_ZNK7ResType5QueryEPKc
liblftp-tasks.so.0:_ZNK7ResType7IsAliasEv
liblftp-tasks.so.0:_ZNK7ResType9QueryBoolEPKc
liblftp-tasks.so.0:_ZNK7xstring10hexdump_toERS_
liblftp-tasks.so.0:_ZNK7xstring11begins_withEPKcm
liblftp-tasks.so.0:_ZNK7xstring2eqEPKcm
liblftp-tasks.so.0:_ZNK7xstring3cmpEPKcm
liblftp-tasks.so.0:_ZNK7xstring4dumpEv
liblftp-tasks.so.0:_ZNK7xstring5eq_ncEPKcm
liblftp-tasks.so.0:_ZNK7xstring5instrEc
liblftp-tasks.so.0:_ZNK7xstring7dump_toERS_
liblftp-tasks.so.0:_ZNK7xstring7hexdumpEv
liblftp-tasks.so.0:_ZNK7xstring8skip_allEjc
liblftp-tasks.so.0:_ZNK7xstring9ends_withEPKcm
liblftp-tasks.so.0:_ZNK7xstring9is_binaryEv
liblftp-tasks.so.0:_ZNK8FileCopy14GetPercentDoneEv
liblftp-tasks.so.0:_ZNK8FileCopy17GetPercentDoneStrEv
liblftp-tasks.so.0:_ZNK8FileCopy18CheckFileSizeAtEOFEv
liblftp-tasks.so.0:_ZNK8FileCopy6GetPosEv
liblftp-tasks.so.0:_ZNK8FileCopy7GetSizeEv
liblftp-tasks.so.0:_ZNK8FileInfo11SizeOutsideEPK5Range
liblftp-tasks.so.0:_ZNK8FileInfo12NotNewerThanEl
liblftp-tasks.so.0:_ZNK8FileInfo12NotOlderThanEl
liblftp-tasks.so.0:_ZNK8FileInfo6SameAsEPKS_i
liblftp-tasks.so.0:_ZNK8FileInfo9NewerThanEl
liblftp-tasks.so.0:_ZNK8FileInfo9OlderThanEl
liblftp-tasks.so.0:_ZNK8ResValue10to_unumberEy
liblftp-tasks.so.0:_ZNK8ResValue11to_tri_boolEb
liblftp-tasks.so.0:_ZNK8ResValue12ToNumberPairERiS0_
liblftp-tasks.so.0:_ZNK8ResValue9to_numberExx
liblftp-tasks.so.0:_ZNK8ResValuecviEv
liblftp-tasks.so.0:_ZNK8ResValuecvjEv
liblftp-tasks.so.0:_ZNK8ResValuecvlEv
liblftp-tasks.so.0:_ZNK8ResValuecvmEv
liblftp-tasks.so.0:_ZNK8Resource6FormatER7xstring
liblftp-tasks.so.0:_ZNK8TimeDiff12MicroSecondsEv
liblftp-tasks.so.0:_ZNK8TimeDiff12MilliSecondsEv
liblftp-tasks.so.0:_ZNK8TimeDiff7SecondsEv
liblftp-tasks.so.0:_ZNK9ParsedURL9CombineToER7xstringPKcb
liblftp-tasks.so.0:_ZNK9ResClient12QueryTriBoolEPKcS1_b
liblftp-tasks.so.0:_ZNK9ResClient5QueryEPKcS1_
liblftp-tasks.so.0:_ZNK9ResClient9QueryBoolEPKcS1_
liblftp-tasks.so.0:_ZNK9StringSet7IsEqualEPKPKci
liblftp-tasks.so.0:_ZThn120_N10DummyProtoD0Ev
liblftp-tasks.so.0:_ZThn120_N10DummyProtoD1Ev
liblftp-tasks.so.0:_ZThn120_N10FileAccess8ReconfigEPKc
liblftp-tasks.so.0:_ZThn120_N10FileAccessD0Ev
liblftp-tasks.so.0:_ZThn120_N10FileAccessD1Ev
liblftp-tasks.so.0:_ZltRK5TimerS1_
liblftp-tasks.so.0:__xargmatch_internal
liblftp-tasks.so.0:argmatch
liblftp-tasks.so.0:argmatch_invalid
liblftp-tasks.so.0:argmatch_to_argument
liblftp-tasks.so.0:argmatch_valid
liblftp-tasks.so.0:asnprintf
liblftp-tasks.so.0:base_len
liblftp-tasks.so.0:c_isalnum
liblftp-tasks.so.0:c_isalpha
liblftp-tasks.so.0:c_isascii
liblftp-tasks.so.0:c_isblank
liblftp-tasks.so.0:c_iscntrl
liblftp-tasks.so.0:c_isdigit
liblftp-tasks.so.0:c_isgraph
liblftp-tasks.so.0:c_islower
liblftp-tasks.so.0:c_isprint
liblftp-tasks.so.0:c_ispunct
liblftp-tasks.so.0:c_isspace
liblftp-tasks.so.0:c_isupper
liblftp-tasks.so.0:c_isxdigit
liblftp-tasks.so.0:c_strcasecmp
liblftp-tasks.so.0:c_strncasecmp
liblftp-tasks.so.0:c_tolower
liblftp-tasks.so.0:c_toupper
liblftp-tasks.so.0:clone_quoting_options
liblftp-tasks.so.0:current_timespec
liblftp-tasks.so.0:dir_len
liblftp-tasks.so.0:dup_cloexec
liblftp-tasks.so.0:filemodestring
liblftp-tasks.so.0:fpurge
liblftp-tasks.so.0:freea
liblftp-tasks.so.0:get_home
liblftp-tasks.so.0:get_lftp_cache_dir
liblftp-tasks.so.0:get_lftp_config_dir
liblftp-tasks.so.0:get_lftp_data_dir
liblftp-tasks.so.0:get_quoting_style
liblftp-tasks.so.0:get_stat_atime
liblftp-tasks.so.0:get_stat_atime_ns
liblftp-tasks.so.0:get_stat_birthtime
liblftp-tasks.so.0:get_stat_birthtime_ns
liblftp-tasks.so.0:get_stat_ctime
liblftp-tasks.so.0:get_stat_ctime_ns
liblftp-tasks.so.0:get_stat_mtime
liblftp-tasks.so.0:get_stat_mtime_ns
liblftp-tasks.so.0:getprogname
liblftp-tasks.so.0:gettime
liblftp-tasks.so.0:gl_scratch_buffer_grow
liblftp-tasks.so.0:gl_scratch_buffer_grow_preserve
liblftp-tasks.so.0:gl_scratch_buffer_set_array_size
liblftp-tasks.so.0:gl_sockets_cleanup
liblftp-tasks.so.0:gl_sockets_startup
liblftp-tasks.so.0:glthread_once_singlethreaded
liblftp-tasks.so.0:glthread_recursive_lock_init_multithreaded
liblftp-tasks.so.0:glthread_rwlock_init_for_glibc
liblftp-tasks.so.0:gnu_mbswidth
liblftp-tasks.so.0:hard_locale
liblftp-tasks.so.0:human_options
liblftp-tasks.so.0:human_readable
liblftp-tasks.so.0:last_component
liblftp-tasks.so.0:locale_charset
liblftp-tasks.so.0:localtime_rz
liblftp-tasks.so.0:make_timespec
liblftp-tasks.so.0:mbsnwidth
liblftp-tasks.so.0:md5_buffer
liblftp-tasks.so.0:md5_finish_ctx
liblftp-tasks.so.0:md5_init_ctx
liblftp-tasks.so.0:md5_process_block
liblftp-tasks.so.0:md5_process_bytes
liblftp-tasks.so.0:md5_read_ctx
liblftp-tasks.so.0:md5_stream
liblftp-tasks.so.0:mdir_name
liblftp-tasks.so.0:memcasecmp
liblftp-tasks.so.0:mktime_internal
liblftp-tasks.so.0:mktime_z
liblftp-tasks.so.0:mmalloca
liblftp-tasks.so.0:mode_adjust
liblftp-tasks.so.0:mode_compile
liblftp-tasks.so.0:mode_create_from_ref
liblftp-tasks.so.0:nstrftime
liblftp-tasks.so.0:parse_datetime
liblftp-tasks.so.0:parse_datetime2
liblftp-tasks.so.0:plural
liblftp-tasks.so.0:printf_fetchargs
liblftp-tasks.so.0:printf_frexp
liblftp-tasks.so.0:printf_frexpl
liblftp-tasks.so.0:printf_parse
liblftp-tasks.so.0:quote
liblftp-tasks.so.0:quote_mem
liblftp-tasks.so.0:quote_n
liblftp-tasks.so.0:quote_n_mem
liblftp-tasks.so.0:quotearg
liblftp-tasks.so.0:quotearg_alloc
liblftp-tasks.so.0:quotearg_alloc_mem
liblftp-tasks.so.0:quotearg_buffer
liblftp-tasks.so.0:quotearg_char
liblftp-tasks.so.0:quotearg_char_mem
liblftp-tasks.so.0:quotearg_colon
liblftp-tasks.so.0:quotearg_colon_mem
liblftp-tasks.so.0:quotearg_custom
liblftp-tasks.so.0:quotearg_custom_mem
liblftp-tasks.so.0:quotearg_free
liblftp-tasks.so.0:quotearg_mem
liblftp-tasks.so.0:quotearg_n
liblftp-tasks.so.0:quotearg_n_custom
liblftp-tasks.so.0:quotearg_n_custom_mem
liblftp-tasks.so.0:quotearg_n_mem
liblftp-tasks.so.0:quotearg_n_style
liblftp-tasks.so.0:quotearg_n_style_colon
liblftp-tasks.so.0:quotearg_n_style_mem
liblftp-tasks.so.0:quotearg_style
liblftp-tasks.so.0:quotearg_style_mem
liblftp-tasks.so.0:recvfd
liblftp-tasks.so.0:rpl_fcntl
liblftp-tasks.so.0:rpl_fflush
liblftp-tasks.so.0:rpl_fseek
liblftp-tasks.so.0:rpl_fseeko
liblftp-tasks.so.0:rpl_mbrtowc
liblftp-tasks.so.0:rpl_vsnprintf
liblftp-tasks.so.0:sendfd
liblftp-tasks.so.0:set_char_quoting
liblftp-tasks.so.0:set_cloexec_flag
liblftp-tasks.so.0:set_custom_quoting
liblftp-tasks.so.0:set_quoting_flags
liblftp-tasks.so.0:set_quoting_style
liblftp-tasks.so.0:setlocale_null
liblftp-tasks.so.0:setlocale_null_r
liblftp-tasks.so.0:sha1_buffer
liblftp-tasks.so.0:sha1_finish_ctx
liblftp-tasks.so.0:sha1_init_ctx
liblftp-tasks.so.0:sha1_process_block
liblftp-tasks.so.0:sha1_process_bytes
liblftp-tasks.so.0:sha1_read_ctx
liblftp-tasks.so.0:sha1_stream
liblftp-tasks.so.0:stat_time_normalize
liblftp-tasks.so.0:strip_trailing_slashes
liblftp-tasks.so.0:strmode
liblftp-tasks.so.0:strnlen1
liblftp-tasks.so.0:timespec_cmp
liblftp-tasks.so.0:timespec_sign
liblftp-tasks.so.0:timespectod
liblftp-tasks.so.0:tzalloc
liblftp-tasks.so.0:tzfree
liblftp-tasks.so.0:u8_mbtoucr
liblftp-tasks.so.0:u8_uctomb_aux
liblftp-tasks.so.0:uc_width
liblftp-tasks.so.0:uc_width1
liblftp-tasks.so.0:vasnprintf
liblftp-tasks.so.0:x2nrealloc
liblftp-tasks.so.0:x2realloc
liblftp-tasks.so.0:xalloc_die
liblftp-tasks.so.0:xcalloc
liblftp-tasks.so.0:xcharalloc
liblftp-tasks.so.0:xmalloc
liblftp-tasks.so.0:xmax
liblftp-tasks.so.0:xmemdup
liblftp-tasks.so.0:xnmalloc
liblftp-tasks.so.0:xnrealloc
liblftp-tasks.so.0:xrealloc
liblftp-tasks.so.0:xstrdup
liblftp-tasks.so.0:xstrtol
liblftp-tasks.so.0:xstrtoul
liblftp-tasks.so.0:xstrtoumax
liblftp-tasks.so.0:xsum
liblftp-tasks.so.0:xsum3
liblftp-tasks.so.0:xsum4
liblftp-tasks.so.0:xzalloc
liblftp-tasks.so.0:yyparse
